RLST7 LINKER/LOCATOR V2.26.09.317

INVOKED BY:
C:\Program Files\Raisonance\Ride\bin\rlstm8.exe -P 
DEBUG\HYPERTERMINAL.O,DEBUG\MAIN.O,DEBUG\STM8S_IT.O,DEBUG\STM8S_BEEP.O,DEBUG\STM8S_CLK.O,DEBUG\STM8S_GPIO.O,DEBUG\STM8S_TIM1.O,DEBUG\STM8S_TIM3.O,DEBUG\STM8S_UART2.O 
TO(DEBUG\HYPERTERMINAL.AOF) LIBPATH(C:\PROGRAM FILES\RAISONANCE\RIDE\LIB\ST7) 
DEBUGLINES DEBUGPUBLICS DEBUGSYMBOLS PR(DEBUG\HYPERTERMINAL.MAP) 
DATASTART(0X0) RAMSIZE(0X800) CODESTART(0X8000) CODESIZE(0X8000) 
STACKTOP(0X800) STACKSIZE(0X200) EEPROMSTART(0X4000) EEPROMSIZE(0X400) 
 WITHOUT ANY FLOATING POINT ARITHMETIC


INPUT MODULES INCLUDED
  DEBUG\HYPERTERMINAL.O(HYPERTERMINAL)
  DEBUG\MAIN.O(MAIN)
  DEBUG\STM8S_IT.O(STM8S_IT)
  DEBUG\STM8S_BEEP.O(STM8S_BEEP)
  DEBUG\STM8S_CLK.O(STM8S_CLK)
  DEBUG\STM8S_GPIO.O(STM8S_GPIO)
  DEBUG\STM8S_TIM1.O(STM8S_TIM1)
  DEBUG\STM8S_TIM3.O(STM8S_TIM3)
  DEBUG\STM8S_UART2.O(STM8S_UART2)
  C:\PROGRAM FILES\RAISONANCE\RIDE\LIB\ST7\RCSTM8.LIB(CHARTOL)
  C:\PROGRAM FILES\RAISONANCE\RIDE\LIB\ST7\RCSTM8.LIB(INTTOL)
  C:\PROGRAM FILES\RAISONANCE\RIDE\LIB\ST7\RCSTM8.LIB(ADD3232)
  C:\PROGRAM FILES\RAISONANCE\RIDE\LIB\ST7\RCSTM8.LIB(AND3232)
  C:\PROGRAM FILES\RAISONANCE\RIDE\LIB\ST7\RCSTM8.LIB(DIVS1616)
  C:\PROGRAM FILES\RAISONANCE\RIDE\LIB\ST7\RCSTM8.LIB(DIVU3232)
  C:\PROGRAM FILES\RAISONANCE\RIDE\LIB\ST7\RCSTM8.LIB(DIVUIX32)
  C:\PROGRAM FILES\RAISONANCE\RIDE\LIB\ST7\RCSTM8.LIB(MULUIX32)
  C:\PROGRAM FILES\RAISONANCE\RIDE\LIB\ST7\RCSTM8.LIB(IX32)
  C:\PROGRAM FILES\RAISONANCE\RIDE\LIB\ST7\RCSTM8.LIB(MULU1616)
  C:\PROGRAM FILES\RAISONANCE\RIDE\LIB\ST7\RCSTM8.LIB(MULU3232)
  C:\PROGRAM FILES\RAISONANCE\RIDE\LIB\ST7\RCSTM8.LIB(MV4_BC2ISA)
  C:\PROGRAM FILES\RAISONANCE\RIDE\LIB\ST7\RCSTM8.LIB(MV4_BC2SK)
  C:\PROGRAM FILES\RAISONANCE\RIDE\LIB\ST7\RCSTM8.LIB(MV4_ISA2BC)
  C:\PROGRAM FILES\RAISONANCE\RIDE\LIB\ST7\RCSTM8.LIB(MV4_PG2BC)
  C:\PROGRAM FILES\RAISONANCE\RIDE\LIB\ST7\RCSTM8.LIB(MV4_PG2SK1)
  C:\PROGRAM FILES\RAISONANCE\RIDE\LIB\ST7\RCSTM8.LIB(SLL168)
  C:\PROGRAM FILES\RAISONANCE\RIDE\LIB\ST7\RCSTM8.LIB(SLL328)
  C:\PROGRAM FILES\RAISONANCE\RIDE\LIB\ST7\RCSTM8.LIB(SRA168)
  C:\PROGRAM FILES\RAISONANCE\RIDE\LIB\ST7\RCSTM8.LIB(SUB3232)
  C:\PROGRAM FILES\RAISONANCE\RIDE\LIB\ST7\RCSTM8.LIB(SRL328)
  C:\PROGRAM FILES\RAISONANCE\RIDE\LIB\ST7\RCSTM8.LIB(SWAPSKBC)
  C:\PROGRAM FILES\RAISONANCE\RIDE\LIB\ST7\RCSTM8.LIB(REGISTERS)
  C:\PROGRAM FILES\RAISONANCE\RIDE\LIB\ST7\RCSTM8.LIB(STARTUP_V_Z)
  C:\PROGRAM FILES\RAISONANCE\RIDE\LIB\ST7\RCSTM8.LIB(STRCMP)
  C:\PROGRAM FILES\RAISONANCE\RIDE\LIB\ST7\RCSTM8.LIB(?STATINIT)

UNCALLED SEGMENTS (use option rmun to remove them):
---------------------------------------------------
    ?PR??BEEP_DEINIT?STM8S_BEEP: Function ?BEEP_DEINIT in file DEBUG\STM8S_BEEP.O was not called
    ?PR??CLK_ADJUSTHSICALIBRATIONVALUE?STM8S_CLK: Function ?CLK_ADJUSTHSICALIBRATIONVALUE in file DEBUG\STM8S_CLK.O was not called
    ?PR??CLK_CANCONFIG?STM8S_CLK: Function ?CLK_CANCONFIG in file DEBUG\STM8S_CLK.O was not called
    ?PR??CLK_CCOCMD?STM8S_CLK: Function ?CLK_CCOCMD in file DEBUG\STM8S_CLK.O was not called
    ?PR??CLK_CCOCONFIG?STM8S_CLK: Function ?CLK_CCOCONFIG in file DEBUG\STM8S_CLK.O was not called
    ?PR??CLK_CLEARITPENDINGBIT?STM8S_CLK: Function ?CLK_CLEARITPENDINGBIT in file DEBUG\STM8S_CLK.O was not called
    ?PR??CLK_CLOCKSECURITYSYSTEMENABLE?STM8S_CLK: Function ?CLK_CLOCKSECURITYSYSTEMENABLE in file DEBUG\STM8S_CLK.O was not called
    ?PR??CLK_CLOCKSWITCHCMD?STM8S_CLK: Function ?CLK_CLOCKSWITCHCMD in file DEBUG\STM8S_CLK.O was not called
    ?PR??CLK_CLOCKSWITCHCONFIG?STM8S_CLK: Function ?CLK_CLOCKSWITCHCONFIG in file DEBUG\STM8S_CLK.O was not called
    ?PR??CLK_DEINIT?STM8S_CLK: Function ?CLK_DEINIT in file DEBUG\STM8S_CLK.O was not called
    ?PR??CLK_FASTHALTWAKEUPCMD?STM8S_CLK: Function ?CLK_FASTHALTWAKEUPCMD in file DEBUG\STM8S_CLK.O was not called
    ?PR??CLK_GETFLAGSTATUS?STM8S_CLK: Function ?CLK_GETFLAGSTATUS in file DEBUG\STM8S_CLK.O was not called
    ?PR??CLK_GETITSTATUS?STM8S_CLK: Function ?CLK_GETITSTATUS in file DEBUG\STM8S_CLK.O was not called
    ?PR??CLK_GETSYSCLKSOURCE?STM8S_CLK: Function ?CLK_GETSYSCLKSOURCE in file DEBUG\STM8S_CLK.O was not called
    ?PR??CLK_HSECMD?STM8S_CLK: Function ?CLK_HSECMD in file DEBUG\STM8S_CLK.O was not called
    ?PR??CLK_HSICMD?STM8S_CLK: Function ?CLK_HSICMD in file DEBUG\STM8S_CLK.O was not called
    ?PR??CLK_ITCONFIG?STM8S_CLK: Function ?CLK_ITCONFIG in file DEBUG\STM8S_CLK.O was not called
    ?PR??CLK_LSICMD?STM8S_CLK: Function ?CLK_LSICMD in file DEBUG\STM8S_CLK.O was not called
    ?PR??CLK_PERIPHERALCLOCKCONFIG?STM8S_CLK: Function ?CLK_PERIPHERALCLOCKCONFIG in file DEBUG\STM8S_CLK.O was not called
    ?PR??CLK_SLOWACTIVEHALTWAKEUPCMD?STM8S_CLK: Function ?CLK_SLOWACTIVEHALTWAKEUPCMD in file DEBUG\STM8S_CLK.O was not called
    ?PR??CLK_SWIMCONFIG?STM8S_CLK: Function ?CLK_SWIMCONFIG in file DEBUG\STM8S_CLK.O was not called
    ?PR??CLK_SYSCLKCONFIG?STM8S_CLK: Function ?CLK_SYSCLKCONFIG in file DEBUG\STM8S_CLK.O was not called
    ?PR??CLK_SYSCLKEMERGENCYCLEAR?STM8S_CLK: Function ?CLK_SYSCLKEMERGENCYCLEAR in file DEBUG\STM8S_CLK.O was not called
    ?PR??GPIO_DEINIT?STM8S_GPIO: Function ?GPIO_DEINIT in file DEBUG\STM8S_GPIO.O was not called
    ?PR??GPIO_EXTERNALPULLUPCONFIG?STM8S_GPIO: Function ?GPIO_EXTERNALPULLUPCONFIG in file DEBUG\STM8S_GPIO.O was not called
    ?PR??GPIO_READINPUTDATA?STM8S_GPIO: Function ?GPIO_READINPUTDATA in file DEBUG\STM8S_GPIO.O was not called
    ?PR??GPIO_READINPUTPIN?STM8S_GPIO: Function ?GPIO_READINPUTPIN in file DEBUG\STM8S_GPIO.O was not called
    ?PR??GPIO_READOUTPUTDATA?STM8S_GPIO: Function ?GPIO_READOUTPUTDATA in file DEBUG\STM8S_GPIO.O was not called
    ?PR??GPIO_WRITE?STM8S_GPIO: Function ?GPIO_WRITE in file DEBUG\STM8S_GPIO.O was not called
    ?PR??INT2STR?HYPERTERMINAL: Function ?INT2STR in file DEBUG\HYPERTERMINAL.O was not called
    ?PR??TI1_CONFIG?STM8S_TIM1?S?STM8S_TIM1: Function ?TI1_CONFIG in file DEBUG\STM8S_TIM1.O was not called
    ?PR??TI2_CONFIG?STM8S_TIM1?S?STM8S_TIM1: Function ?TI2_CONFIG in file DEBUG\STM8S_TIM1.O was not called
    ?PR??TI3_CONFIG?STM8S_TIM1?S?STM8S_TIM1: Function ?TI3_CONFIG in file DEBUG\STM8S_TIM1.O was not called
    ?PR??TI4_CONFIG?STM8S_TIM1?S?STM8S_TIM1: Function ?TI4_CONFIG in file DEBUG\STM8S_TIM1.O was not called
    ?PR??TIM1_ARRPRELOADCONFIG?STM8S_TIM1: Function ?TIM1_ARRPRELOADCONFIG in file DEBUG\STM8S_TIM1.O was not called
    ?PR??TIM1_BDTRCONFIG?STM8S_TIM1: Function ?TIM1_BDTRCONFIG in file DEBUG\STM8S_TIM1.O was not called
    ?PR??TIM1_CCPRELOADCONTROL?STM8S_TIM1: Function ?TIM1_CCPRELOADCONTROL in file DEBUG\STM8S_TIM1.O was not called
    ?PR??TIM1_CCXCMD?STM8S_TIM1: Function ?TIM1_CCXCMD in file DEBUG\STM8S_TIM1.O was not called
    ?PR??TIM1_CCXNCMD?STM8S_TIM1: Function ?TIM1_CCXNCMD in file DEBUG\STM8S_TIM1.O was not called
    ?PR??TIM1_CLEARFLAG?STM8S_TIM1: Function ?TIM1_CLEARFLAG in file DEBUG\STM8S_TIM1.O was not called
    ?PR??TIM1_CLEARITPENDINGBIT?STM8S_TIM1: Function ?TIM1_CLEARITPENDINGBIT in file DEBUG\STM8S_TIM1.O was not called
    ?PR??TIM1_CMD?STM8S_TIM1: Function ?TIM1_CMD in file DEBUG\STM8S_TIM1.O was not called
    ?PR??TIM1_COUNTERMODECONFIG?STM8S_TIM1: Function ?TIM1_COUNTERMODECONFIG in file DEBUG\STM8S_TIM1.O was not called
    ?PR??TIM1_CTRLPWMOUTPUTS?STM8S_TIM1: Function ?TIM1_CTRLPWMOUTPUTS in file DEBUG\STM8S_TIM1.O was not called
    ?PR??TIM1_DEINIT?STM8S_TIM1: Function ?TIM1_DEINIT in file DEBUG\STM8S_TIM1.O was not called
    ?PR??TIM1_ENCODERINTERFACECONFIG?STM8S_TIM1: Function ?TIM1_ENCODERINTERFACECONFIG in file DEBUG\STM8S_TIM1.O was not called
    ?PR??TIM1_ETRCLOCKMODE1CONFIG?STM8S_TIM1: Function ?TIM1_ETRCLOCKMODE1CONFIG in file DEBUG\STM8S_TIM1.O was not called
    ?PR??TIM1_ETRCLOCKMODE2CONFIG?STM8S_TIM1: Function ?TIM1_ETRCLOCKMODE2CONFIG in file DEBUG\STM8S_TIM1.O was not called
    ?PR??TIM1_ETRCONFIG?STM8S_TIM1: Function ?TIM1_ETRCONFIG in file DEBUG\STM8S_TIM1.O was not called
    ?PR??TIM1_FORCEDOC1CONFIG?STM8S_TIM1: Function ?TIM1_FORCEDOC1CONFIG in file DEBUG\STM8S_TIM1.O was not called
    ?PR??TIM1_FORCEDOC2CONFIG?STM8S_TIM1: Function ?TIM1_FORCEDOC2CONFIG in file DEBUG\STM8S_TIM1.O was not called
    ?PR??TIM1_FORCEDOC3CONFIG?STM8S_TIM1: Function ?TIM1_FORCEDOC3CONFIG in file DEBUG\STM8S_TIM1.O was not called
    ?PR??TIM1_FORCEDOC4CONFIG?STM8S_TIM1: Function ?TIM1_FORCEDOC4CONFIG in file DEBUG\STM8S_TIM1.O was not called
    ?PR??TIM1_GENERATEEVENT?STM8S_TIM1: Function ?TIM1_GENERATEEVENT in file DEBUG\STM8S_TIM1.O was not called
    ?PR??TIM1_GETCAPTURE1?STM8S_TIM1: Function ?TIM1_GETCAPTURE1 in file DEBUG\STM8S_TIM1.O was not called
    ?PR??TIM1_GETCAPTURE2?STM8S_TIM1: Function ?TIM1_GETCAPTURE2 in file DEBUG\STM8S_TIM1.O was not called
    ?PR??TIM1_GETCAPTURE3?STM8S_TIM1: Function ?TIM1_GETCAPTURE3 in file DEBUG\STM8S_TIM1.O was not called
    ?PR??TIM1_GETCAPTURE4?STM8S_TIM1: Function ?TIM1_GETCAPTURE4 in file DEBUG\STM8S_TIM1.O was not called
    ?PR??TIM1_GETCOUNTER?STM8S_TIM1: Function ?TIM1_GETCOUNTER in file DEBUG\STM8S_TIM1.O was not called
    ?PR??TIM1_GETFLAGSTATUS?STM8S_TIM1: Function ?TIM1_GETFLAGSTATUS in file DEBUG\STM8S_TIM1.O was not called
    ?PR??TIM1_GETITSTATUS?STM8S_TIM1: Function ?TIM1_GETITSTATUS in file DEBUG\STM8S_TIM1.O was not called
    ?PR??TIM1_GETPRESCALER?STM8S_TIM1: Function ?TIM1_GETPRESCALER in file DEBUG\STM8S_TIM1.O was not called
    ?PR??TIM1_ICINIT?STM8S_TIM1: Function ?TIM1_ICINIT in file DEBUG\STM8S_TIM1.O was not called
    ?PR??TIM1_INTERNALCLOCKCONFIG?STM8S_TIM1: Function ?TIM1_INTERNALCLOCKCONFIG in file DEBUG\STM8S_TIM1.O was not called
    ?PR??TIM1_ITCONFIG?STM8S_TIM1: Function ?TIM1_ITCONFIG in file DEBUG\STM8S_TIM1.O was not called
    ?PR??TIM1_OC1FASTCONFIG?STM8S_TIM1: Function ?TIM1_OC1FASTCONFIG in file DEBUG\STM8S_TIM1.O was not called
    ?PR??TIM1_OC1INIT?STM8S_TIM1: Function ?TIM1_OC1INIT in file DEBUG\STM8S_TIM1.O was not called
    ?PR??TIM1_OC1NPOLARITYCONFIG?STM8S_TIM1: Function ?TIM1_OC1NPOLARITYCONFIG in file DEBUG\STM8S_TIM1.O was not called
    ?PR??TIM1_OC1POLARITYCONFIG?STM8S_TIM1: Function ?TIM1_OC1POLARITYCONFIG in file DEBUG\STM8S_TIM1.O was not called
    ?PR??TIM1_OC1PRELOADCONFIG?STM8S_TIM1: Function ?TIM1_OC1PRELOADCONFIG in file DEBUG\STM8S_TIM1.O was not called
    ?PR??TIM1_OC2FASTCONFIG?STM8S_TIM1: Function ?TIM1_OC2FASTCONFIG in file DEBUG\STM8S_TIM1.O was not called
    ?PR??TIM1_OC2INIT?STM8S_TIM1: Function ?TIM1_OC2INIT in file DEBUG\STM8S_TIM1.O was not called
    ?PR??TIM1_OC2NPOLARITYCONFIG?STM8S_TIM1: Function ?TIM1_OC2NPOLARITYCONFIG in file DEBUG\STM8S_TIM1.O was not called
    ?PR??TIM1_OC2POLARITYCONFIG?STM8S_TIM1: Function ?TIM1_OC2POLARITYCONFIG in file DEBUG\STM8S_TIM1.O was not called
    ?PR??TIM1_OC2PRELOADCONFIG?STM8S_TIM1: Function ?TIM1_OC2PRELOADCONFIG in file DEBUG\STM8S_TIM1.O was not called
    ?PR??TIM1_OC3FASTCONFIG?STM8S_TIM1: Function ?TIM1_OC3FASTCONFIG in file DEBUG\STM8S_TIM1.O was not called
    ?PR??TIM1_OC3INIT?STM8S_TIM1: Function ?TIM1_OC3INIT in file DEBUG\STM8S_TIM1.O was not called
    ?PR??TIM1_OC3NPOLARITYCONFIG?STM8S_TIM1: Function ?TIM1_OC3NPOLARITYCONFIG in file DEBUG\STM8S_TIM1.O was not called
    ?PR??TIM1_OC3POLARITYCONFIG?STM8S_TIM1: Function ?TIM1_OC3POLARITYCONFIG in file DEBUG\STM8S_TIM1.O was not called
    ?PR??TIM1_OC3PRELOADCONFIG?STM8S_TIM1: Function ?TIM1_OC3PRELOADCONFIG in file DEBUG\STM8S_TIM1.O was not called
    ?PR??TIM1_OC4FASTCONFIG?STM8S_TIM1: Function ?TIM1_OC4FASTCONFIG in file DEBUG\STM8S_TIM1.O was not called
    ?PR??TIM1_OC4INIT?STM8S_TIM1: Function ?TIM1_OC4INIT in file DEBUG\STM8S_TIM1.O was not called
    ?PR??TIM1_OC4POLARITYCONFIG?STM8S_TIM1: Function ?TIM1_OC4POLARITYCONFIG in file DEBUG\STM8S_TIM1.O was not called
    ?PR??TIM1_OC4PRELOADCONFIG?STM8S_TIM1: Function ?TIM1_OC4PRELOADCONFIG in file DEBUG\STM8S_TIM1.O was not called
    ?PR??TIM1_PRESCALERCONFIG?STM8S_TIM1: Function ?TIM1_PRESCALERCONFIG in file DEBUG\STM8S_TIM1.O was not called
    ?PR??TIM1_PWMICONFIG?STM8S_TIM1: Function ?TIM1_PWMICONFIG in file DEBUG\STM8S_TIM1.O was not called
    ?PR??TIM1_SELECTCOM?STM8S_TIM1: Function ?TIM1_SELECTCOM in file DEBUG\STM8S_TIM1.O was not called
    ?PR??TIM1_SELECTHALLSENSOR?STM8S_TIM1: Function ?TIM1_SELECTHALLSENSOR in file DEBUG\STM8S_TIM1.O was not called
    ?PR??TIM1_SELECTINPUTTRIGGER?STM8S_TIM1: Function ?TIM1_SELECTINPUTTRIGGER in file DEBUG\STM8S_TIM1.O was not called
    ?PR??TIM1_SELECTMASTERSLAVEMODE?STM8S_TIM1: Function ?TIM1_SELECTMASTERSLAVEMODE in file DEBUG\STM8S_TIM1.O was not called
    ?PR??TIM1_SELECTOCXM?STM8S_TIM1: Function ?TIM1_SELECTOCXM in file DEBUG\STM8S_TIM1.O was not called
    ?PR??TIM1_SELECTONEPULSEMODE?STM8S_TIM1: Function ?TIM1_SELECTONEPULSEMODE in file DEBUG\STM8S_TIM1.O was not called
    ?PR??TIM1_SELECTOUTPUTTRIGGER?STM8S_TIM1: Function ?TIM1_SELECTOUTPUTTRIGGER in file DEBUG\STM8S_TIM1.O was not called
    ?PR??TIM1_SELECTSLAVEMODE?STM8S_TIM1: Function ?TIM1_SELECTSLAVEMODE in file DEBUG\STM8S_TIM1.O was not called
    ?PR??TIM1_SETAUTORELOAD?STM8S_TIM1: Function ?TIM1_SETAUTORELOAD in file DEBUG\STM8S_TIM1.O was not called
    ?PR??TIM1_SETCOMPARE1?STM8S_TIM1: Function ?TIM1_SETCOMPARE1 in file DEBUG\STM8S_TIM1.O was not called
    ?PR??TIM1_SETCOMPARE2?STM8S_TIM1: Function ?TIM1_SETCOMPARE2 in file DEBUG\STM8S_TIM1.O was not called
    ?PR??TIM1_SETCOMPARE3?STM8S_TIM1: Function ?TIM1_SETCOMPARE3 in file DEBUG\STM8S_TIM1.O was not called
    ?PR??TIM1_SETCOMPARE4?STM8S_TIM1: Function ?TIM1_SETCOMPARE4 in file DEBUG\STM8S_TIM1.O was not called
    ?PR??TIM1_SETCOUNTER?STM8S_TIM1: Function ?TIM1_SETCOUNTER in file DEBUG\STM8S_TIM1.O was not called
    ?PR??TIM1_SETIC1PRESCALER?STM8S_TIM1: Function ?TIM1_SETIC1PRESCALER in file DEBUG\STM8S_TIM1.O was not called
    ?PR??TIM1_SETIC2PRESCALER?STM8S_TIM1: Function ?TIM1_SETIC2PRESCALER in file DEBUG\STM8S_TIM1.O was not called
    ?PR??TIM1_SETIC3PRESCALER?STM8S_TIM1: Function ?TIM1_SETIC3PRESCALER in file DEBUG\STM8S_TIM1.O was not called
    ?PR??TIM1_SETIC4PRESCALER?STM8S_TIM1: Function ?TIM1_SETIC4PRESCALER in file DEBUG\STM8S_TIM1.O was not called
    ?PR??TIM1_TIMEBASEINIT?STM8S_TIM1: Function ?TIM1_TIMEBASEINIT in file DEBUG\STM8S_TIM1.O was not called
    ?PR??TIM1_TIXEXTERNALCLOCKCONFIG?STM8S_TIM1: Function ?TIM1_TIXEXTERNALCLOCKCONFIG in file DEBUG\STM8S_TIM1.O was not called
    ?PR??TIM1_UPDATEDISABLECONFIG?STM8S_TIM1: Function ?TIM1_UPDATEDISABLECONFIG in file DEBUG\STM8S_TIM1.O was not called
    ?PR??TIM1_UPDATEREQUESTCONFIG?STM8S_TIM1: Function ?TIM1_UPDATEREQUESTCONFIG in file DEBUG\STM8S_TIM1.O was not called
    ?PR??TIM3_ARRPRELOADCONFIG?STM8S_TIM3: Function ?TIM3_ARRPRELOADCONFIG in file DEBUG\STM8S_TIM3.O was not called
    ?PR??TIM3_CCXCMD?STM8S_TIM3: Function ?TIM3_CCXCMD in file DEBUG\STM8S_TIM3.O was not called
    ?PR??TIM3_FORCEDOC1CONFIG?STM8S_TIM3: Function ?TIM3_FORCEDOC1CONFIG in file DEBUG\STM8S_TIM3.O was not called
    ?PR??TIM3_FORCEDOC2CONFIG?STM8S_TIM3: Function ?TIM3_FORCEDOC2CONFIG in file DEBUG\STM8S_TIM3.O was not called
    ?PR??TIM3_GENERATEEVENT?STM8S_TIM3: Function ?TIM3_GENERATEEVENT in file DEBUG\STM8S_TIM3.O was not called
    ?PR??TIM3_GETCAPTURE2?STM8S_TIM3: Function ?TIM3_GETCAPTURE2 in file DEBUG\STM8S_TIM3.O was not called
    ?PR??TIM3_GETCOUNTER?STM8S_TIM3: Function ?TIM3_GETCOUNTER in file DEBUG\STM8S_TIM3.O was not called
    ?PR??TIM3_GETFLAGSTATUS?STM8S_TIM3: Function ?TIM3_GETFLAGSTATUS in file DEBUG\STM8S_TIM3.O was not called
    ?PR??TIM3_GETITSTATUS?STM8S_TIM3: Function ?TIM3_GETITSTATUS in file DEBUG\STM8S_TIM3.O was not called
    ?PR??TIM3_GETPRESCALER?STM8S_TIM3: Function ?TIM3_GETPRESCALER in file DEBUG\STM8S_TIM3.O was not called
    ?PR??TIM3_OC1INIT?STM8S_TIM3: Function ?TIM3_OC1INIT in file DEBUG\STM8S_TIM3.O was not called
    ?PR??TIM3_OC1POLARITYCONFIG?STM8S_TIM3: Function ?TIM3_OC1POLARITYCONFIG in file DEBUG\STM8S_TIM3.O was not called
    ?PR??TIM3_OC1PRELOADCONFIG?STM8S_TIM3: Function ?TIM3_OC1PRELOADCONFIG in file DEBUG\STM8S_TIM3.O was not called
    ?PR??TIM3_OC2INIT?STM8S_TIM3: Function ?TIM3_OC2INIT in file DEBUG\STM8S_TIM3.O was not called
    ?PR??TIM3_OC2POLARITYCONFIG?STM8S_TIM3: Function ?TIM3_OC2POLARITYCONFIG in file DEBUG\STM8S_TIM3.O was not called
    ?PR??TIM3_OC2PRELOADCONFIG?STM8S_TIM3: Function ?TIM3_OC2PRELOADCONFIG in file DEBUG\STM8S_TIM3.O was not called
    ?PR??TIM3_PRESCALERCONFIG?STM8S_TIM3: Function ?TIM3_PRESCALERCONFIG in file DEBUG\STM8S_TIM3.O was not called
    ?PR??TIM3_PWMICONFIG?STM8S_TIM3: Function ?TIM3_PWMICONFIG in file DEBUG\STM8S_TIM3.O was not called
    ?PR??TIM3_SELECTOCXM?STM8S_TIM3: Function ?TIM3_SELECTOCXM in file DEBUG\STM8S_TIM3.O was not called
    ?PR??TIM3_SELECTONEPULSEMODE?STM8S_TIM3: Function ?TIM3_SELECTONEPULSEMODE in file DEBUG\STM8S_TIM3.O was not called
    ?PR??TIM3_SETAUTORELOAD?STM8S_TIM3: Function ?TIM3_SETAUTORELOAD in file DEBUG\STM8S_TIM3.O was not called
    ?PR??TIM3_SETCOMPARE1?STM8S_TIM3: Function ?TIM3_SETCOMPARE1 in file DEBUG\STM8S_TIM3.O was not called
    ?PR??TIM3_SETCOMPARE2?STM8S_TIM3: Function ?TIM3_SETCOMPARE2 in file DEBUG\STM8S_TIM3.O was not called
    ?PR??TIM3_SETCOUNTER?STM8S_TIM3: Function ?TIM3_SETCOUNTER in file DEBUG\STM8S_TIM3.O was not called
    ?PR??TIM3_UPDATEDISABLECONFIG?STM8S_TIM3: Function ?TIM3_UPDATEDISABLECONFIG in file DEBUG\STM8S_TIM3.O was not called
    ?PR??TIM3_UPDATEREQUESTCONFIG?STM8S_TIM3: Function ?TIM3_UPDATEREQUESTCONFIG in file DEBUG\STM8S_TIM3.O was not called
    ?PR??UART2_CLEARFLAG?STM8S_UART2: Function ?UART2_CLEARFLAG in file DEBUG\STM8S_UART2.O was not called
    ?PR??UART2_CLEARITPENDINGBIT?STM8S_UART2: Function ?UART2_CLEARITPENDINGBIT in file DEBUG\STM8S_UART2.O was not called
    ?PR??UART2_CMD?STM8S_UART2: Function ?UART2_CMD in file DEBUG\STM8S_UART2.O was not called
    ?PR??UART2_GETITSTATUS?STM8S_UART2: Function ?UART2_GETITSTATUS in file DEBUG\STM8S_UART2.O was not called
    ?PR??UART2_IRDACMD?STM8S_UART2: Function ?UART2_IRDACMD in file DEBUG\STM8S_UART2.O was not called
    ?PR??UART2_IRDACONFIG?STM8S_UART2: Function ?UART2_IRDACONFIG in file DEBUG\STM8S_UART2.O was not called
    ?PR??UART2_ITCONFIG?STM8S_UART2: Function ?UART2_ITCONFIG in file DEBUG\STM8S_UART2.O was not called
    ?PR??UART2_LINBREAKDETECTIONCONFIG?STM8S_UART2: Function ?UART2_LINBREAKDETECTIONCONFIG in file DEBUG\STM8S_UART2.O was not called
    ?PR??UART2_LINCMD?STM8S_UART2: Function ?UART2_LINCMD in file DEBUG\STM8S_UART2.O was not called
    ?PR??UART2_LINCONFIG?STM8S_UART2: Function ?UART2_LINCONFIG in file DEBUG\STM8S_UART2.O was not called
    ?PR??UART2_RECEIVEDATA8?STM8S_UART2: Function ?UART2_RECEIVEDATA8 in file DEBUG\STM8S_UART2.O was not called
    ?PR??UART2_RECEIVEDATA9?STM8S_UART2: Function ?UART2_RECEIVEDATA9 in file DEBUG\STM8S_UART2.O was not called
    ?PR??UART2_RECEIVERWAKEUPCMD?STM8S_UART2: Function ?UART2_RECEIVERWAKEUPCMD in file DEBUG\STM8S_UART2.O was not called
    ?PR??UART2_SENDBREAK?STM8S_UART2: Function ?UART2_SENDBREAK in file DEBUG\STM8S_UART2.O was not called
    ?PR??UART2_SENDDATA9?STM8S_UART2: Function ?UART2_SENDDATA9 in file DEBUG\STM8S_UART2.O was not called
    ?PR??UART2_SETADDRESS?STM8S_UART2: Function ?UART2_SETADDRESS in file DEBUG\STM8S_UART2.O was not called
    ?PR??UART2_SETGUARDTIME?STM8S_UART2: Function ?UART2_SETGUARDTIME in file DEBUG\STM8S_UART2.O was not called
    ?PR??UART2_SETPRESCALER?STM8S_UART2: Function ?UART2_SETPRESCALER in file DEBUG\STM8S_UART2.O was not called
    ?PR??UART2_SMARTCARDCMD?STM8S_UART2: Function ?UART2_SMARTCARDCMD in file DEBUG\STM8S_UART2.O was not called
    ?PR??UART2_SMARTCARDNACKCMD?STM8S_UART2: Function ?UART2_SMARTCARDNACKCMD in file DEBUG\STM8S_UART2.O was not called
    ?PR??UART2_WAKEUPCONFIG?STM8S_UART2: Function ?UART2_WAKEUPCONFIG in file DEBUG\STM8S_UART2.O was not called



LINK MAP OF MODULE: DEBUG\HYPERTERMINAL.AOF (HYPERTERMINAL)

	TYPE     BASE         LENGTH     RELOCATION      SEGMENT NAME
	----     ----         ------     ----------      ------------

	* * * * * * * *   D A T A       M E M O R Y   * * * * * * * *
	DATA     000000H      000020H    PAGE0           ?ED0?STM8S_IT
	DATA     000020H      000001H    PAGE0           ?D0?STM8S_IT
	DATA     000021H      00000CH    PAGE0           ?D0?STM8S_CLK
	DATA     00002DH      000004H    PAGE0           SEG_REGISTERS
	DATA     000031H      000007H    PAGE0           ?ZD0?STM8S_IT
	         000038H      0005C8H                     *** GAP ***
	DATA     000600H      000200H    UNIT            ?C_STACK?SEG

	* * * * * * * *   C O D E       M E M O R Y   * * * * * * * *
	CODE     008000H      000004H    AT              ?CO?STARTUP_V_Z00
	CODE     008004H      000004H    AT              ?IT?VECTOR#256
	CODE     008008H      000004H    AT              ?IT?VECTOR#0
	CODE     00800CH      000004H    AT              ?IT?VECTOR#1
	CODE     008010H      000004H    AT              ?IT?VECTOR#2
	CODE     008014H      000004H    AT              ?IT?VECTOR#3
	CODE     008018H      000004H    AT              ?IT?VECTOR#4
	CODE     00801CH      000004H    AT              ?IT?VECTOR#5
	CODE     008020H      000004H    AT              ?IT?VECTOR#6
	CODE     008024H      000004H    AT              ?IT?VECTOR#7
	CODE     008028H      000001H    INSECTION0      ?PR??TRAP_IRQHANDLER?STM8S_IT
	CODE     008029H      000001H    INSECTION0      ?PR??TLI_IRQHANDLER?STM8S_IT
	CODE     00802AH      000001H    INSECTION0      ?PR??AWU_IRQHANDLER?STM8S_IT
	CODE     00802BH      000001H    INSECTION0      ?PR??CLK_IRQHANDLER?STM8S_IT
	CODE     00802CH      000001H    INSECTION0      ?PR??EXTI_PORTA_IRQHANDLER?STM8S_IT
	CODE     00802DH      000001H    INSECTION0      ?PR??EXTI_PORTB_IRQHANDLER?STM8S_IT
	CODE     00802EH      000001H    INSECTION0      ?PR??EXTI_PORTC_IRQHANDLER?STM8S_IT
	         00802FH      000001H                     *** GAP ***
	CODE     008030H      000004H    AT              ?IT?VECTOR#10
	CODE     008034H      000004H    AT              ?IT?VECTOR#11
	CODE     008038H      000004H    AT              ?IT?VECTOR#12
	CODE     00803CH      000004H    AT              ?IT?VECTOR#13
	CODE     008040H      000004H    AT              ?IT?VECTOR#14
	CODE     008044H      000004H    AT              ?IT?VECTOR#15
	CODE     008048H      000004H    AT              ?IT?VECTOR#16
	CODE     00804CH      000001H    INSECTION0      ?PR??EXTI_PORTD_IRQHANDLER?STM8S_IT
	CODE     00804DH      000001H    INSECTION0      ?PR??EXTI_PORTE_IRQHANDLER?STM8S_IT
	CODE     00804EH      000001H    INSECTION0      ?PR??SPI_IRQHANDLER?STM8S_IT
	CODE     00804FH      000001H    INSECTION0      ?PR??TIM1_UPD_OVF_TRG_BRK_IRQHANDLER?STM8S_IT
	CODE     008050H      000001H    INSECTION0      ?PR??TIM1_CAP_COM_IRQHANDLER?STM8S_IT
	CODE     008051H      000001H    INSECTION0      ?PR??TIM2_UPD_OVF_BRK_IRQHANDLER?STM8S_IT
	CODE     008052H      000001H    INSECTION0      ?PR??TIM2_CAP_COM_IRQHANDLER?STM8S_IT
	         008053H      000001H                     *** GAP ***
	CODE     008054H      000004H    AT              ?IT?VECTOR#19
	CODE     008058H      000004H    AT              ?IT?VECTOR#20
	CODE     00805CH      000004H    AT              ?IT?VECTOR#21
	CODE     008060H      000004H    AT              ?IT?VECTOR#22
	CODE     008064H      000004H    AT              ?IT?VECTOR#23
	CODE     008068H      000004H    AT              ?IT?VECTOR#24
	CODE     00806CH      00028CH    INSECTION0      ?STR?HYPERTERMINAL
	CODE     0082F8H      00003BH    INSECTION0      ?PR??TIM3_UPD_OVF_BRK_IRQHANDLER?STM8S_IT
	CODE     008333H      000001H    INSECTION0      ?PR??TIM3_CAP_COM_IRQHANDLER?STM8S_IT
	CODE     008334H      000001H    INSECTION0      ?PR??I2C_IRQHANDLER?STM8S_IT
	CODE     008335H      000001H    INSECTION0      ?PR??UART2_TX_IRQHANDLER?STM8S_IT
	CODE     008336H      000001H    INSECTION0      ?PR??UART2_RX_IRQHANDLER?STM8S_IT
	CODE     008337H      000001H    INSECTION0      ?PR??ADC1_IRQHANDLER?STM8S_IT
	CODE     008338H      000001H    INSECTION0      ?PR??TIM4_UPD_OVF_IRQHANDLER?STM8S_IT
	CODE     008339H      000001H    INSECTION0      ?PR??EEPROM_EEC_IRQHANDLER?STM8S_IT
	CODE     00833AH      0001ABH    INSECTION0      CSTDLIB
	         0084E5H      000001H                     *** GAP ***
	CODE     0084E6H      000047H    INSECTION0      CSTDLIB_DIV32
	CODE     00852DH      0000AEH    INSECTION       ?PR??INT2STR?HYPERTERMINAL
	CODE     0085DBH      000280H    INSECTION       ?PR??STR2INT?HYPERTERMINAL
	CODE     00885BH      000049H    INSECTION       ?PR??GETINTEGERINPUT?HYPERTERMINAL
	CODE     0088A4H      000020H    INSECTION       ?PR??SERIALKEYPRESSED?HYPERTERMINAL
	CODE     0088C4H      000018H    INSECTION       ?PR??GETKEY?HYPERTERMINAL
	CODE     0088DCH      000018H    INSECTION0      CSTDLIB_IX
	CODE     0088F4H      000052H    INSECTION0      CSTDLIB_SHIFT
	CODE     008946H      000020H    INSECTION       ?PR??SERIALPUTCHAR?HYPERTERMINAL
	CODE     008966H      000015H    INSECTION       ?PR??SERIALPUTSTRING?HYPERTERMINAL
	CODE     00897BH      000077H    INSECTION       ?PR??GETINPUTSTRING?HYPERTERMINAL
	CODE     0089F2H      000180H    INSECTION       ?PR??MAIN_MENU?HYPERTERMINAL
	CODE     008B72H      000063H    INSECTION       ?PR?MAIN?MAIN
	CODE     008BD5H      0000C5H    INSECTION       ?PR??LSIMEASURMENT?MAIN
	CODE     008C9AH      000005H    INSECTION       ?PR??BEEP_DEINIT?STM8S_BEEP
	CODE     008C9FH      000046H    INSECTION       ?PR??BEEP_INIT?STM8S_BEEP
	CODE     008CE5H      000021H    INSECTION       ?PR??BEEP_CMD?STM8S_BEEP
	CODE     008D06H      000086H    INSECTION       ?PR??BEEP_LSICALIBRATIONCONFIG?STM8S_BEEP
	CODE     008D8CH      000041H    INSECTION       ?PR??CLK_DEINIT?STM8S_CLK
	CODE     008DCDH      000021H    INSECTION       ?PR??CLK_FASTHALTWAKEUPCMD?STM8S_CLK
	CODE     008DEEH      000021H    INSECTION       ?PR??CLK_HSECMD?STM8S_CLK
	CODE     008E0FH      000021H    INSECTION       ?PR??CLK_HSICMD?STM8S_CLK
	CODE     008E30H      000021H    INSECTION       ?PR??CLK_LSICMD?STM8S_CLK
	CODE     008E51H      000021H    INSECTION       ?PR??CLK_CCOCMD?STM8S_CLK
	CODE     008E72H      000021H    INSECTION       ?PR??CLK_CLOCKSWITCHCMD?STM8S_CLK
	CODE     008E93H      000021H    INSECTION       ?PR??CLK_SLOWACTIVEHALTWAKEUPCMD?STM8S_CLK
	CODE     008EB4H      0000CDH    INSECTION       ?PR??CLK_PERIPHERALCLOCKCONFIG?STM8S_CLK
	CODE     008F81H      0000E5H    INSECTION       ?PR??CLK_CLOCKSWITCHCONFIG?STM8S_CLK
	CODE     009066H      00001BH    INSECTION       ?PR??CLK_HSIPRESCALERCONFIG?STM8S_CLK
	CODE     009081H      000027H    INSECTION       ?PR??CLK_CCOCONFIG?STM8S_CLK
	CODE     0090A8H      000061H    INSECTION       ?PR??CLK_ITCONFIG?STM8S_CLK
	CODE     009109H      000065H    INSECTION       ?PR??CLK_SYSCLKCONFIG?STM8S_CLK
	CODE     00916EH      000021H    INSECTION       ?PR??CLK_SWIMCONFIG?STM8S_CLK
	CODE     00918FH      00001BH    INSECTION       ?PR??CLK_CANCONFIG?STM8S_CLK
	CODE     0091AAH      00000DH    INSECTION       ?PR??CLK_CLOCKSECURITYSYSTEMENABLE?STM8S_CLK
	CODE     0091B7H      000006H    INSECTION       ?PR??CLK_GETSYSCLKSOURCE?STM8S_CLK
	CODE     0091BDH      000085H    INSECTION       ?PR??CLK_GETCLOCKFREQ?STM8S_CLK
	CODE     009242H      000029H    INSECTION       ?PR??CLK_ADJUSTHSICALIBRATIONVALUE?STM8S_CLK
	CODE     00926BH      00000DH    INSECTION       ?PR??CLK_SYSCLKEMERGENCYCLEAR?STM8S_CLK
	CODE     009278H      000091H    INSECTION       ?PR??CLK_GETFLAGSTATUS?STM8S_CLK
	CODE     009309H      000075H    INSECTION       ?PR??CLK_GETITSTATUS?STM8S_CLK
	CODE     00937EH      000024H    INSECTION       ?PR??CLK_CLEARITPENDINGBIT?STM8S_CLK
	CODE     0093A2H      000020H    INSECTION       ?PR??GPIO_DEINIT?STM8S_GPIO
	CODE     0093C2H      0000E5H    INSECTION       ?PR??GPIO_INIT?STM8S_GPIO
	CODE     0094A7H      00000AH    INSECTION       ?PR??GPIO_WRITE?STM8S_GPIO
	CODE     0094B1H      00000DH    INSECTION       ?PR??GPIO_WRITEHIGH?STM8S_GPIO
	CODE     0094BEH      000022H    INSECTION       ?PR??GPIO_WRITELOW?STM8S_GPIO
	CODE     0094E0H      00000DH    INSECTION       ?PR??GPIO_WRITEREVERSE?STM8S_GPIO
	CODE     0094EDH      000006H    INSECTION       ?PR??GPIO_READOUTPUTDATA?STM8S_GPIO
	CODE     0094F3H      000009H    INSECTION       ?PR??GPIO_READINPUTDATA?STM8S_GPIO
	CODE     0094FCH      000029H    INSECTION       ?PR??GPIO_READINPUTPIN?STM8S_GPIO
	CODE     009525H      000038H    INSECTION       ?PR??GPIO_EXTERNALPULLUPCONFIG?STM8S_GPIO
	CODE     00955DH      000099H    INSECTION       ?PR??TIM1_DEINIT?STM8S_TIM1
	CODE     0095F6H      000048H    INSECTION       ?PR??TIM1_TIMEBASEINIT?STM8S_TIM1
	CODE     00963EH      0000F2H    INSECTION       ?PR??TIM1_OC1INIT?STM8S_TIM1
	CODE     009730H      0000F2H    INSECTION       ?PR??TIM1_OC2INIT?STM8S_TIM1
	CODE     009822H      0000F2H    INSECTION       ?PR??TIM1_OC3INIT?STM8S_TIM1
	CODE     009914H      000094H    INSECTION       ?PR??TIM1_OC4INIT?STM8S_TIM1
	CODE     0099A8H      000059H    INSECTION       ?PR??TIM1_BDTRCONFIG?STM8S_TIM1
	CODE     009A01H      00005FH    INSECTION       ?PR??TIM1_ICINIT?STM8S_TIM1
	CODE     009A60H      000079H    INSECTION       ?PR??TIM1_PWMICONFIG?STM8S_TIM1
	CODE     009AD9H      000021H    INSECTION       ?PR??TIM1_CMD?STM8S_TIM1
	CODE     009AFAH      000021H    INSECTION       ?PR??TIM1_CTRLPWMOUTPUTS?STM8S_TIM1
	CODE     009B1BH      000025H    INSECTION       ?PR??TIM1_ITCONFIG?STM8S_TIM1
	CODE     009B40H      00000DH    INSECTION       ?PR??TIM1_INTERNALCLOCKCONFIG?STM8S_TIM1
	CODE     009B4DH      000034H    INSECTION       ?PR??TIM1_ETRCLOCKMODE1CONFIG?STM8S_TIM1
	CODE     009B81H      00001CH    INSECTION       ?PR??TIM1_ETRCLOCKMODE2CONFIG?STM8S_TIM1
	CODE     009B9DH      00003BH    INSECTION       ?PR??TIM1_ETRCONFIG?STM8S_TIM1
	CODE     009BD8H      000033H    INSECTION       ?PR??TIM1_TIXEXTERNALCLOCKCONFIG?STM8S_TIM1
	CODE     009C0BH      000029H    INSECTION       ?PR??TIM1_SELECTINPUTTRIGGER?STM8S_TIM1
	CODE     009C34H      000021H    INSECTION       ?PR??TIM1_UPDATEDISABLECONFIG?STM8S_TIM1
	CODE     009C55H      000021H    INSECTION       ?PR??TIM1_UPDATEREQUESTCONFIG?STM8S_TIM1
	CODE     009C76H      000021H    INSECTION       ?PR??TIM1_SELECTHALLSENSOR?STM8S_TIM1
	CODE     009C97H      000021H    INSECTION       ?PR??TIM1_SELECTONEPULSEMODE?STM8S_TIM1
	CODE     009CB8H      000029H    INSECTION       ?PR??TIM1_SELECTOUTPUTTRIGGER?STM8S_TIM1
	CODE     009CE1H      000029H    INSECTION       ?PR??TIM1_SELECTSLAVEMODE?STM8S_TIM1
	CODE     009D0AH      000021H    INSECTION       ?PR??TIM1_SELECTMASTERSLAVEMODE?STM8S_TIM1
	CODE     009D2BH      0000ADH    INSECTION       ?PR??TIM1_ENCODERINTERFACECONFIG?STM8S_TIM1
	CODE     009DD8H      000015H    INSECTION       ?PR??TIM1_PRESCALERCONFIG?STM8S_TIM1
	CODE     009DEDH      000029H    INSECTION       ?PR??TIM1_COUNTERMODECONFIG?STM8S_TIM1
	CODE     009E16H      000029H    INSECTION       ?PR??TIM1_FORCEDOC1CONFIG?STM8S_TIM1
	CODE     009E3FH      000029H    INSECTION       ?PR??TIM1_FORCEDOC2CONFIG?STM8S_TIM1
	CODE     009E68H      000029H    INSECTION       ?PR??TIM1_FORCEDOC3CONFIG?STM8S_TIM1
	CODE     009E91H      000029H    INSECTION       ?PR??TIM1_FORCEDOC4CONFIG?STM8S_TIM1
	CODE     009EBAH      000021H    INSECTION       ?PR??TIM1_ARRPRELOADCONFIG?STM8S_TIM1
	CODE     009EDBH      000021H    INSECTION       ?PR??TIM1_SELECTCOM?STM8S_TIM1
	CODE     009EFCH      000021H    INSECTION       ?PR??TIM1_CCPRELOADCONTROL?STM8S_TIM1
	CODE     009F1DH      000021H    INSECTION       ?PR??TIM1_OC1PRELOADCONFIG?STM8S_TIM1
	CODE     009F3EH      000021H    INSECTION       ?PR??TIM1_OC2PRELOADCONFIG?STM8S_TIM1
	CODE     009F5FH      000021H    INSECTION       ?PR??TIM1_OC3PRELOADCONFIG?STM8S_TIM1
	CODE     009F80H      000021H    INSECTION       ?PR??TIM1_OC4PRELOADCONFIG?STM8S_TIM1
	CODE     009FA1H      000021H    INSECTION       ?PR??TIM1_OC1FASTCONFIG?STM8S_TIM1
	CODE     009FC2H      000021H    INSECTION       ?PR??TIM1_OC2FASTCONFIG?STM8S_TIM1
	CODE     009FE3H      000021H    INSECTION       ?PR??TIM1_OC3FASTCONFIG?STM8S_TIM1
	CODE     00A004H      000021H    INSECTION       ?PR??TIM1_OC4FASTCONFIG?STM8S_TIM1
	CODE     00A025H      000008H    INSECTION       ?PR??TIM1_GENERATEEVENT?STM8S_TIM1
	CODE     00A02DH      000021H    INSECTION       ?PR??TIM1_OC1POLARITYCONFIG?STM8S_TIM1
	CODE     00A04EH      000021H    INSECTION       ?PR??TIM1_OC1NPOLARITYCONFIG?STM8S_TIM1
	CODE     00A06FH      000021H    INSECTION       ?PR??TIM1_OC2POLARITYCONFIG?STM8S_TIM1
	CODE     00A090H      000021H    INSECTION       ?PR??TIM1_OC2NPOLARITYCONFIG?STM8S_TIM1
	CODE     00A0B1H      000021H    INSECTION       ?PR??TIM1_OC3POLARITYCONFIG?STM8S_TIM1
	CODE     00A0D2H      000021H    INSECTION       ?PR??TIM1_OC3NPOLARITYCONFIG?STM8S_TIM1
	CODE     00A0F3H      000021H    INSECTION       ?PR??TIM1_OC4POLARITYCONFIG?STM8S_TIM1
	CODE     00A114H      000093H    INSECTION       ?PR??TIM1_CCXCMD?STM8S_TIM1
	CODE     00A1A7H      00006CH    INSECTION       ?PR??TIM1_CCXNCMD?STM8S_TIM1
	CODE     00A213H      0000E4H    INSECTION       ?PR??TIM1_SELECTOCXM?STM8S_TIM1
	CODE     00A2F7H      000010H    INSECTION       ?PR??TIM1_SETCOUNTER?STM8S_TIM1
	CODE     00A307H      000010H    INSECTION       ?PR??TIM1_SETAUTORELOAD?STM8S_TIM1
	CODE     00A317H      000010H    INSECTION       ?PR??TIM1_SETCOMPARE1?STM8S_TIM1
	CODE     00A327H      000010H    INSECTION       ?PR??TIM1_SETCOMPARE2?STM8S_TIM1
	CODE     00A337H      000010H    INSECTION       ?PR??TIM1_SETCOMPARE3?STM8S_TIM1
	CODE     00A347H      000010H    INSECTION       ?PR??TIM1_SETCOMPARE4?STM8S_TIM1
	CODE     00A357H      000029H    INSECTION       ?PR??TIM1_SETIC1PRESCALER?STM8S_TIM1
	CODE     00A380H      000029H    INSECTION       ?PR??TIM1_SETIC2PRESCALER?STM8S_TIM1
	CODE     00A3A9H      000029H    INSECTION       ?PR??TIM1_SETIC3PRESCALER?STM8S_TIM1
	CODE     00A3D2H      000029H    INSECTION       ?PR??TIM1_SETIC4PRESCALER?STM8S_TIM1
	CODE     00A3FBH      00003AH    INSECTION       ?PR??TIM1_GETCAPTURE1?STM8S_TIM1
	CODE     00A435H      00003AH    INSECTION       ?PR??TIM1_GETCAPTURE2?STM8S_TIM1
	CODE     00A46FH      00003AH    INSECTION       ?PR??TIM1_GETCAPTURE3?STM8S_TIM1
	CODE     00A4A9H      00003AH    INSECTION       ?PR??TIM1_GETCAPTURE4?STM8S_TIM1
	CODE     00A4E3H      00001FH    INSECTION       ?PR??TIM1_GETCOUNTER?STM8S_TIM1
	CODE     00A502H      00001FH    INSECTION       ?PR??TIM1_GETPRESCALER?STM8S_TIM1
	CODE     00A521H      000076H    INSECTION       ?PR??TIM1_GETFLAGSTATUS?STM8S_TIM1
	CODE     00A597H      000028H    INSECTION       ?PR??TIM1_CLEARFLAG?STM8S_TIM1
	CODE     00A5BFH      00006FH    INSECTION       ?PR??TIM1_GETITSTATUS?STM8S_TIM1
	CODE     00A62EH      00000CH    INSECTION       ?PR??TIM1_CLEARITPENDINGBIT?STM8S_TIM1
	CODE     00A63AH      00008AH    INSECTION       ?PR??TI1_CONFIG?STM8S_TIM1?S?STM8S_TIM1
	CODE     00A6C4H      00008AH    INSECTION       ?PR??TI2_CONFIG?STM8S_TIM1?S?STM8S_TIM1
	CODE     00A74EH      00008AH    INSECTION       ?PR??TI3_CONFIG?STM8S_TIM1?S?STM8S_TIM1
	CODE     00A7D8H      00008AH    INSECTION       ?PR??TI4_CONFIG?STM8S_TIM1?S?STM8S_TIM1
	CODE     00A862H      000045H    INSECTION       ?PR??TIM3_DEINIT?STM8S_TIM3
	CODE     00A8A7H      000015H    INSECTION       ?PR??TIM3_TIMEBASEINIT?STM8S_TIM3
	CODE     00A8BCH      000078H    INSECTION       ?PR??TIM3_OC1INIT?STM8S_TIM3
	CODE     00A934H      000078H    INSECTION       ?PR??TIM3_OC2INIT?STM8S_TIM3
	CODE     00A9ACH      00002EH    INSECTION       ?PR??TIM3_ICINIT?STM8S_TIM3
	CODE     00A9DAH      00007CH    INSECTION       ?PR??TIM3_PWMICONFIG?STM8S_TIM3
	CODE     00AA56H      000021H    INSECTION       ?PR??TIM3_CMD?STM8S_TIM3
	CODE     00AA77H      000023H    INSECTION       ?PR??TIM3_ITCONFIG?STM8S_TIM3
	CODE     00AA9AH      000021H    INSECTION       ?PR??TIM3_UPDATEDISABLECONFIG?STM8S_TIM3
	CODE     00AABBH      000021H    INSECTION       ?PR??TIM3_UPDATEREQUESTCONFIG?STM8S_TIM3
	CODE     00AADCH      000021H    INSECTION       ?PR??TIM3_SELECTONEPULSEMODE?STM8S_TIM3
	CODE     00AAFDH      00000DH    INSECTION       ?PR??TIM3_PRESCALERCONFIG?STM8S_TIM3
	CODE     00AB0AH      000029H    INSECTION       ?PR??TIM3_FORCEDOC1CONFIG?STM8S_TIM3
	CODE     00AB33H      000029H    INSECTION       ?PR??TIM3_FORCEDOC2CONFIG?STM8S_TIM3
	CODE     00AB5CH      000021H    INSECTION       ?PR??TIM3_ARRPRELOADCONFIG?STM8S_TIM3
	CODE     00AB7DH      000021H    INSECTION       ?PR??TIM3_OC1PRELOADCONFIG?STM8S_TIM3
	CODE     00AB9EH      000021H    INSECTION       ?PR??TIM3_OC2PRELOADCONFIG?STM8S_TIM3
	CODE     00ABBFH      000008H    INSECTION       ?PR??TIM3_GENERATEEVENT?STM8S_TIM3
	CODE     00ABC7H      000021H    INSECTION       ?PR??TIM3_OC1POLARITYCONFIG?STM8S_TIM3
	CODE     00ABE8H      000021H    INSECTION       ?PR??TIM3_OC2POLARITYCONFIG?STM8S_TIM3
	CODE     00AC09H      000045H    INSECTION       ?PR??TIM3_CCXCMD?STM8S_TIM3
	CODE     00AC4EH      00006DH    INSECTION       ?PR??TIM3_SELECTOCXM?STM8S_TIM3
	CODE     00ACBBH      000010H    INSECTION       ?PR??TIM3_SETCOUNTER?STM8S_TIM3
	CODE     00ACCBH      000010H    INSECTION       ?PR??TIM3_SETAUTORELOAD?STM8S_TIM3
	CODE     00ACDBH      000010H    INSECTION       ?PR??TIM3_SETCOMPARE1?STM8S_TIM3
	CODE     00ACEBH      000010H    INSECTION       ?PR??TIM3_SETCOMPARE2?STM8S_TIM3
	CODE     00ACFBH      000029H    INSECTION       ?PR??TIM3_SETIC1PRESCALER?STM8S_TIM3
	CODE     00AD24H      000029H    INSECTION       ?PR??TIM3_SETIC2PRESCALER?STM8S_TIM3
	CODE     00AD4DH      00003AH    INSECTION       ?PR??TIM3_GETCAPTURE1?STM8S_TIM3
	CODE     00AD87H      00003AH    INSECTION       ?PR??TIM3_GETCAPTURE2?STM8S_TIM3
	CODE     00ADC1H      00001FH    INSECTION       ?PR??TIM3_GETCOUNTER?STM8S_TIM3
	CODE     00ADE0H      000006H    INSECTION       ?PR??TIM3_GETPRESCALER?STM8S_TIM3
	CODE     00ADE6H      000079H    INSECTION       ?PR??TIM3_GETFLAGSTATUS?STM8S_TIM3
	CODE     00AE5FH      00001BH    INSECTION       ?PR??TIM3_CLEARFLAG?STM8S_TIM3
	CODE     00AE7AH      000057H    INSECTION       ?PR??TIM3_GETITSTATUS?STM8S_TIM3
	CODE     00AED1H      00000AH    INSECTION       ?PR??TIM3_CLEARITPENDINGBIT?STM8S_TIM3
	CODE     00AEDBH      00008AH    INSECTION       ?PR??TI1_CONFIG?STM8S_TIM3?S?STM8S_TIM3
	CODE     00AF65H      00008AH    INSECTION       ?PR??TI2_CONFIG?STM8S_TIM3?S?STM8S_TIM3
	CODE     00AFEFH      000031H    INSECTION       ?PR??UART2_DEINIT?STM8S_UART2
	CODE     00B020H      0001CDH    INSECTION       ?PR??UART2_INIT?STM8S_UART2
	CODE     00B1EDH      000021H    INSECTION       ?PR??UART2_CMD?STM8S_UART2
	CODE     00B20EH      0000DDH    INSECTION       ?PR??UART2_ITCONFIG?STM8S_UART2
	CODE     00B2EBH      000021H    INSECTION       ?PR??UART2_IRDACONFIG?STM8S_UART2
	CODE     00B30CH      000021H    INSECTION       ?PR??UART2_IRDACMD?STM8S_UART2
	CODE     00B32DH      000021H    INSECTION       ?PR??UART2_LINBREAKDETECTIONCONFIG?STM8S_UART2
	CODE     00B34EH      00005DH    INSECTION       ?PR??UART2_LINCONFIG?STM8S_UART2
	CODE     00B3ABH      000021H    INSECTION       ?PR??UART2_LINCMD?STM8S_UART2
	CODE     00B3CCH      000021H    INSECTION       ?PR??UART2_SMARTCARDCMD?STM8S_UART2
	CODE     00B3EDH      000021H    INSECTION       ?PR??UART2_SMARTCARDNACKCMD?STM8S_UART2
	CODE     00B40EH      00001BH    INSECTION       ?PR??UART2_WAKEUPCONFIG?STM8S_UART2
	CODE     00B429H      000021H    INSECTION       ?PR??UART2_RECEIVERWAKEUPCMD?STM8S_UART2
	CODE     00B44AH      000004H    INSECTION       ?PR??UART2_RECEIVEDATA8?STM8S_UART2
	CODE     00B44EH      000032H    INSECTION       ?PR??UART2_RECEIVEDATA9?STM8S_UART2
	CODE     00B480H      000008H    INSECTION       ?PR??UART2_SENDDATA8?STM8S_UART2
	CODE     00B488H      000033H    INSECTION       ?PR??UART2_SENDDATA9?STM8S_UART2
	CODE     00B4BBH      000033H    INSECTION0      CSTART
	CODE     00B4EEH      00000DH    INSECTION       ?PR??UART2_SENDBREAK?STM8S_UART2
	CODE     00B4FBH      00001BH    INSECTION       ?PR??UART2_SETADDRESS?STM8S_UART2
	CODE     00B516H      000008H    INSECTION       ?PR??UART2_SETGUARDTIME?STM8S_UART2
	CODE     00B51EH      000008H    INSECTION       ?PR??UART2_SETPRESCALER?STM8S_UART2
	CODE     00B526H      0000E3H    INSECTION       ?PR??UART2_GETFLAGSTATUS?STM8S_UART2
	CODE     00B609H      000046H    INSECTION       ?PR??UART2_CLEARFLAG?STM8S_UART2
	CODE     00B64FH      0001C5H    INSECTION       ?PR??UART2_GETITSTATUS?STM8S_UART2
	CODE     00B814H      000031H    INSECTION       ?PR??UART2_CLEARITPENDINGBIT?STM8S_UART2
	CODE     00B845H      000013H    UNIT            ?PR?STATINIT

EXECUTABLE SUMMARY:
-------------------
    Total EEPROM storage requirement:  0000H (0)
    Total DATA storage requirement:  0238H (568)
    Total CODE storage requirement:  3855H (14421)


REFERENCE MAP OF MODULE: DEBUG\HYPERTERMINAL.AOF (HYPERTERMINAL)

SEGMENT
   +-->CALLED SEGMENT
---------------------
?PR??INT2STR?HYPERTERMINAL
   +-->CSTDLIB
   +-->CSTDLIB_DIV32
   +-->CSTDLIB
   +-->CSTDLIB_IX
   +-->CSTDLIB

?PR??STR2INT?HYPERTERMINAL
   +-->CSTDLIB_IX
   +-->CSTDLIB
   +-->CSTDLIB_SHIFT
   +-->CSTDLIB

?PR??GETINTEGERINPUT?HYPERTERMINAL
   +-->?PR??STR2INT?HYPERTERMINAL
   +-->?PR??SERIALPUTSTRING?HYPERTERMINAL
   +-->?STR?HYPERTERMINAL
   +-->?PR??GETINPUTSTRING?HYPERTERMINAL

?PR??SERIALKEYPRESSED?HYPERTERMINAL
   +-->?PR??UART2_GETFLAGSTATUS?STM8S_UART2

?PR??GETKEY?HYPERTERMINAL
   +-->?PR??SERIALKEYPRESSED?HYPERTERMINAL

?PR??SERIALPUTCHAR?HYPERTERMINAL
   +-->?PR??UART2_SENDDATA8?STM8S_UART2

?PR??SERIALPUTSTRING?HYPERTERMINAL
   +-->?PR??SERIALPUTCHAR?HYPERTERMINAL

?PR??GETINPUTSTRING?HYPERTERMINAL
   +-->?PR??SERIALPUTCHAR?HYPERTERMINAL
   +-->?PR??SERIALPUTSTRING?HYPERTERMINAL
   +-->?STR?HYPERTERMINAL
   +-->?PR??GETKEY?HYPERTERMINAL

?PR??MAIN_MENU?HYPERTERMINAL
   +-->?PR??BEEP_INIT?STM8S_BEEP
   +-->?PR??BEEP_CMD?STM8S_BEEP
   +-->CSTDLIB
   +-->?PR??GETINTEGERINPUT?HYPERTERMINAL
   +-->?PR??GPIO_WRITEHIGH?STM8S_GPIO
   +-->?PR??GPIO_WRITELOW?STM8S_GPIO
   +-->?PR??TIM3_CMD?STM8S_TIM3
   +-->CSTDLIB
   +-->?PR??GETINPUTSTRING?HYPERTERMINAL
   +-->?PR??SERIALPUTSTRING?HYPERTERMINAL
   +-->?STR?HYPERTERMINAL

?PR?MAIN?MAIN
   +-->?PR??MAIN_MENU?HYPERTERMINAL
   +-->?PR??BEEP_LSICALIBRATIONCONFIG?STM8S_BEEP
   +-->CSTDLIB
   +-->?PR??LSIMEASURMENT?MAIN
   +-->?PR??UART2_INIT?STM8S_UART2
   +-->?PR??UART2_DEINIT?STM8S_UART2
   +-->?PR??CLK_HSIPRESCALERCONFIG?STM8S_CLK
   +-->?PR??GPIO_INIT?STM8S_GPIO
   +-->?PR??TIM3_ITCONFIG?STM8S_TIM3
   +-->?PR??TIM3_TIMEBASEINIT?STM8S_TIM3
   +-->?PR??TIM3_DEINIT?STM8S_TIM3

?PR??LSIMEASURMENT?MAIN
   +-->CSTDLIB_DIV32
   +-->CSTDLIB_SHIFT
   +-->CSTDLIB
   +-->?PR??TIM3_CLEARFLAG?STM8S_TIM3
   +-->?PR??TIM3_GETCAPTURE1?STM8S_TIM3
   +-->?PR??TIM3_CMD?STM8S_TIM3
   +-->?PR??TIM3_ICINIT?STM8S_TIM3
   +-->CSTDLIB
   +-->?PR??CLK_GETCLOCKFREQ?STM8S_CLK

?PR??TIM3_UPD_OVF_BRK_IRQHANDLER?STM8S_IT
   +-->?PR??TIM3_CLEARITPENDINGBIT?STM8S_TIM3
   +-->?PR??GPIO_WRITEREVERSE?STM8S_GPIO

?PR??BEEP_LSICALIBRATIONCONFIG?STM8S_BEEP
   +-->CSTDLIB
   +-->CSTDLIB_IX

?PR??CLK_PERIPHERALCLOCKCONFIG?STM8S_CLK
   +-->CSTDLIB_SHIFT

?PR??CLK_GETCLOCKFREQ?STM8S_CLK
   +-->CSTDLIB
   +-->CSTDLIB_DIV32
   +-->CSTDLIB

?PR??TIM1_ICINIT?STM8S_TIM1
   +-->?PR??TIM1_SETIC4PRESCALER?STM8S_TIM1
   +-->?PR??TI4_CONFIG?STM8S_TIM1?S?STM8S_TIM1
   +-->?PR??TIM1_SETIC3PRESCALER?STM8S_TIM1
   +-->?PR??TI3_CONFIG?STM8S_TIM1?S?STM8S_TIM1
   +-->?PR??TIM1_SETIC2PRESCALER?STM8S_TIM1
   +-->?PR??TI2_CONFIG?STM8S_TIM1?S?STM8S_TIM1
   +-->?PR??TIM1_SETIC1PRESCALER?STM8S_TIM1
   +-->?PR??TI1_CONFIG?STM8S_TIM1?S?STM8S_TIM1

?PR??TIM1_PWMICONFIG?STM8S_TIM1
   +-->?PR??TIM1_SETIC2PRESCALER?STM8S_TIM1
   +-->?PR??TI2_CONFIG?STM8S_TIM1?S?STM8S_TIM1
   +-->?PR??TIM1_SETIC1PRESCALER?STM8S_TIM1
   +-->?PR??TI1_CONFIG?STM8S_TIM1?S?STM8S_TIM1

?PR??TIM1_ETRCLOCKMODE1CONFIG?STM8S_TIM1
   +-->?PR??TIM1_ETRCONFIG?STM8S_TIM1

?PR??TIM1_ETRCLOCKMODE2CONFIG?STM8S_TIM1
   +-->?PR??TIM1_ETRCONFIG?STM8S_TIM1

?PR??TIM1_TIXEXTERNALCLOCKCONFIG?STM8S_TIM1
   +-->?PR??TIM1_SELECTINPUTTRIGGER?STM8S_TIM1
   +-->?PR??TI1_CONFIG?STM8S_TIM1?S?STM8S_TIM1
   +-->?PR??TI2_CONFIG?STM8S_TIM1?S?STM8S_TIM1

?PR??TIM3_ICINIT?STM8S_TIM3
   +-->?PR??TIM3_SETIC2PRESCALER?STM8S_TIM3
   +-->?PR??TI2_CONFIG?STM8S_TIM3?S?STM8S_TIM3
   +-->?PR??TIM3_SETIC1PRESCALER?STM8S_TIM3
   +-->?PR??TI1_CONFIG?STM8S_TIM3?S?STM8S_TIM3

?PR??TIM3_PWMICONFIG?STM8S_TIM3
   +-->?PR??TIM3_SETIC2PRESCALER?STM8S_TIM3
   +-->?PR??TI2_CONFIG?STM8S_TIM3?S?STM8S_TIM3
   +-->?PR??TIM3_SETIC1PRESCALER?STM8S_TIM3
   +-->?PR??TI1_CONFIG?STM8S_TIM3?S?STM8S_TIM3

?PR??TIM3_GETFLAGSTATUS?STM8S_TIM3
   +-->CSTDLIB_SHIFT

?PR??TIM3_CLEARFLAG?STM8S_TIM3
   +-->CSTDLIB_SHIFT

?PR??UART2_INIT?STM8S_UART2
   +-->CSTDLIB
   +-->CSTDLIB_SHIFT
   +-->CSTDLIB
   +-->CSTDLIB_IX
   +-->CSTDLIB
   +-->CSTDLIB_DIV32
   +-->?PR??CLK_GETCLOCKFREQ?STM8S_CLK
   +-->CSTDLIB
   +-->CSTDLIB_SHIFT
   +-->CSTDLIB

?PR??UART2_ITCONFIG?STM8S_UART2
   +-->CSTDLIB_SHIFT

?PR??UART2_GETITSTATUS?STM8S_UART2
   +-->CSTDLIB_SHIFT


SYMBOL TABLE FOR DEBUG\HYPERTERMINAL.AOF(HYPERTERMINAL)
--------------------------------------------------------

	VALUE              TYPE               NAME
	-----              ----               ----

	----------         TranslatorMod-ST7  HYPERTERMINAL
	  C:0089F2H        PUBLIC             ?Main_Menu
	  C:00897BH        PUBLIC             ?GetInputString
	  C:008966H        PUBLIC             ?SerialPutString
	  C:008946H        PUBLIC             ?SerialPutChar
	  C:0088C4H        PUBLIC             ?GetKey
	  C:0088A4H        PUBLIC             ?SerialKeyPressed
	  C:00885BH        PUBLIC             ?GetIntegerInput
	  C:0085DBH        PUBLIC             ?Str2Int
	  C:00852DH        PUBLIC             ?Int2Str
	  C:0089F2H        SYMBOL             ?Main_Menu
	  C:00897BH        SYMBOL             ?GetInputString
	  C:008966H        SYMBOL             ?SerialPutString
	  C:008946H        SYMBOL             ?SerialPutChar
	  C:0088C4H        SYMBOL             ?GetKey
	  C:0088A4H        SYMBOL             ?SerialKeyPressed
	  C:00885BH        SYMBOL             ?GetIntegerInput
	  C:0085DBH        SYMBOL             ?Str2Int
	  C:00852DH        SYMBOL             ?Int2Str
	  T:000000H        SYMBOL             pFunction
	  T:000000H        SYMBOL             _fctptr_t
	  T:000000H        SYMBOL             UART2_IT_TypeDef
	  T:000000H        SYMBOL             UART2_Flag_TypeDef
	  T:000000H        SYMBOL             UART2_Mode_TypeDef
	  T:000000H        SYMBOL             UART2_WordLength_TypeDef
	  T:000000H        SYMBOL             UART2_SyncMode_TypeDef
	  T:000000H        SYMBOL             UART2_LinDivUp_TypeDef
	  T:000000H        SYMBOL             UART2_LinAutosync_TypeDef
	  T:000000H        SYMBOL             UART2_LinMode_TypeDef
	  T:000000H        SYMBOL             UART2_Parity_TypeDef
	  T:000000H        SYMBOL             UART2_StopBits_TypeDef
	  T:000000H        SYMBOL             UART2_LINBreakDetectionLength_TypeDef
	  T:000000H        SYMBOL             UART2_WakeUp_TypeDef
	  T:000000H        SYMBOL             UART2_IrDAMode_TypeDef
	  T:000000H        SYMBOL             TIM3_FLAG_TypeDef
	  T:000000H        SYMBOL             TIM3_UpdateSource_TypeDef
	  T:000000H        SYMBOL             TIM3_EventSource_TypeDef
	  T:000000H        SYMBOL             TIM3_PSCReloadMode_TypeDef
	  T:000000H        SYMBOL             TIM3_IT_TypeDef
	  T:000000H        SYMBOL             TIM3_ICPSC_TypeDef
	  T:000000H        SYMBOL             TIM3_ICSelection_TypeDef
	  T:000000H        SYMBOL             TIM3_ICPolarity_TypeDef
	  T:000000H        SYMBOL             TIM3_OutputState_TypeDef
	  T:000000H        SYMBOL             TIM3_OCPolarity_TypeDef
	  T:000000H        SYMBOL             TIM3_Channel_TypeDef
	  T:000000H        SYMBOL             TIM3_OPMode_TypeDef
	  T:000000H        SYMBOL             TIM3_OCMode_TypeDef
	  T:000000H        SYMBOL             TIM3_Prescaler_TypeDef
	  T:000000H        SYMBOL             TIM3_ForcedAction_TypeDef
	  T:000000H        SYMBOL             GPIO_Pin_TypeDef
	  T:000000H        SYMBOL             GPIO_Mode_TypeDef
	  T:000000H        SYMBOL             CLK_CANDivider_TypeDef
	  T:000000H        SYMBOL             CLK_SWIMDivider_TypeDef
	  T:000000H        SYMBOL             CLK_Prescaler_TypeDef
	  T:000000H        SYMBOL             CLK_IT_TypeDef
	  T:000000H        SYMBOL             CLK_Flag_TypeDef
	  T:000000H        SYMBOL             CLK_Peripheral_TypeDef
	  T:000000H        SYMBOL             CLK_Output_TypeDef
	  T:000000H        SYMBOL             CLK_HSITrimValue_TypeDef
	  T:000000H        SYMBOL             CLK_Source_TypeDef
	  T:000000H        SYMBOL             CLK_CSSConfig_TypeDef
	  T:000000H        SYMBOL             CLK_CurrentClockState_TypeDef
	  T:000000H        SYMBOL             CLK_SwitchMode_TypeDef
	  T:000000H        SYMBOL             BEEP_Frequency_TypeDef
	  T:000000H        SYMBOL             CFG_TypeDef
	  T:000000H        SYMBOL             CAN_TypeDef
	  T:000000H        SYMBOL             UART3_TypeDef
	  T:000000H        SYMBOL             UART2_TypeDef
	  T:000000H        SYMBOL             UART1_TypeDef
	  T:000000H        SYMBOL             SWIM_TypeDef
	  T:000000H        SYMBOL             SPI_TypeDef
	  T:000000H        SYMBOL             RST_TypeDef
	  T:000000H        SYMBOL             WWDG_TypeDef
	  T:000000H        SYMBOL             IWDG_TypeDef
	  T:000000H        SYMBOL             OPT_TypeDef
	  T:000000H        SYMBOL             FLASH_TypeDef
	  T:000000H        SYMBOL             EXTI_TypeDef
	  T:000000H        SYMBOL             ITC_TypeDef
	  T:000000H        SYMBOL             I2C_TypeDef
	  T:000000H        SYMBOL             TIM6_TypeDef
	  T:000000H        SYMBOL             TIM5_TypeDef
	  T:000000H        SYMBOL             TIM4_TypeDef
	  T:000000H        SYMBOL             TIM3_TypeDef
	  T:000000H        SYMBOL             TIM2_TypeDef
	  T:000000H        SYMBOL             TIM1_TypeDef
	  T:000000H        SYMBOL             CLK_TypeDef
	  T:000000H        SYMBOL             BEEP_TypeDef
	  T:000000H        SYMBOL             AWU_TypeDef
	  T:000000H        SYMBOL             ADC1_TypeDef
	  T:000000H        SYMBOL             GPIO_TypeDef
	  T:000000H        SYMBOL             ErrorStatus
	  T:000000H        SYMBOL             FunctionalState
	  T:000000H        SYMBOL             BitStatus
	  T:000000H        SYMBOL             ITStatus
	  T:000000H        SYMBOL             FlagStatus
	  T:000000H        SYMBOL             bool
	  T:000000H        SYMBOL             vuc8
	  T:000000H        SYMBOL             vuc16
	  T:000000H        SYMBOL             vuc32
	  T:000000H        SYMBOL             vu8
	  T:000000H        SYMBOL             vu16
	  T:000000H        SYMBOL             vu32
	  T:000000H        SYMBOL             uc8
	  T:000000H        SYMBOL             uc16
	  T:000000H        SYMBOL             uc32
	  T:000000H        SYMBOL             u8
	  T:000000H        SYMBOL             u16
	  T:000000H        SYMBOL             u32
	  T:000000H        SYMBOL             vsc8
	  T:000000H        SYMBOL             vsc16
	  T:000000H        SYMBOL             vsc32
	  T:000000H        SYMBOL             vs8
	  T:000000H        SYMBOL             vs16
	  T:000000H        SYMBOL             vs32
	  T:000000H        SYMBOL             sc8
	  T:000000H        SYMBOL             sc16
	  T:000000H        SYMBOL             sc32
	  T:000000H        SYMBOL             s8
	  T:000000H        SYMBOL             s16
	  T:000000H        SYMBOL             s32
	  T:000000H        SYMBOL             va_list
	  T:000000H        SYMBOL             size_t
	  N:000FFEH        SYMBOL             _ICE_DUMMY_
	----------         PROC-ST7           ?PR??INT2STR?HYPERTERMINAL
	  S:000009H        SYMBOL             str
	  S:00000DH        SYMBOL             intnum
	  S:000001H        SYMBOL             i
	  S:000003H        SYMBOL             Div
	  S:000005H        SYMBOL             j
	  S:000007H        SYMBOL             Status
	  C:00852DH        LINE#              37
	  C:008530H        LINE#              39
	  C:00853FH        LINE#              40
	  C:008544H        LINE#              41
	  C:008544H        LINE#              42
	  C:008561H        LINE#              43
	  C:008577H        LINE#              44
	  C:008582H        LINE#              45
	  C:0085BCH        LINE#              46
	  C:0085BCH        LINE#              47
	  C:0085C3H        LINE#              50
	  C:0085C3H        LINE#              51
	  C:0085C8H        LINE#              40
	  C:0085DAH        LINE#              54
	----------         ENDPROC-ST7        
	----------         PROC-ST7           ?PR??STR2INT?HYPERTERMINAL
	  S:000007H        SYMBOL             inputstr
	  S:00000BH        SYMBOL             intnum
	  S:000001H        SYMBOL             i
	  S:000002H        SYMBOL             res
	  S:000003H        SYMBOL             val
	  C:0085DBH        LINE#              65
	  C:0085DEH        LINE#              67
	  C:0085E6H        LINE#              68
	  C:0085EBH        LINE#              69
	  C:00860CH        LINE#              70
	  C:00860CH        LINE#              71
	  C:008614H        LINE#              72
	  C:008614H        LINE#              73
	  C:008619H        LINE#              75
	  C:00861DH        LINE#              76
	  C:00861DH        LINE#              77
	  C:008627H        LINE#              78
	  C:008627H        LINE#              79
	  C:008632H        LINE#              80
	  C:008636H        LINE#              81
	  C:008639H        LINE#              83
	  C:008687H        LINE#              84
	  C:008687H        LINE#              85
	  C:008739H        LINE#              88
	  C:008739H        LINE#              90
	  C:00873DH        LINE#              91
	  C:00873FH        LINE#              75
	  C:00874CH        LINE#              94
	  C:008759H        LINE#              97
	  C:008759H        LINE#              98
	  C:00875DH        LINE#              99
	  C:00875DH        LINE#              100
	  C:008767H        LINE#              101
	  C:008767H        LINE#              102
	  C:008772H        LINE#              104
	  C:008776H        LINE#              105
	  C:008779H        LINE#              107
	  C:008797H        LINE#              108
	  C:008797H        LINE#              109
	  C:0087A6H        LINE#              110
	  C:0087B1H        LINE#              111
	  C:0087B5H        LINE#              112
	  C:0087B8H        LINE#              114
	  C:0087D6H        LINE#              115
	  C:0087D6H        LINE#              116
	  C:0087E5H        LINE#              117
	  C:0087F0H        LINE#              118
	  C:0087F4H        LINE#              119
	  C:0087F6H        LINE#              121
	  C:00880EH        LINE#              122
	  C:008839H        LINE#              124
	  C:008839H        LINE#              126
	  C:00883DH        LINE#              127
	  C:00883FH        LINE#              98
	  C:00884CH        LINE#              130
	  C:008856H        LINE#              132
	  C:00885AH        LINE#              133
	----------         ENDPROC-ST7        
	----------         PROC-ST7           ?PR??GETINTEGERINPUT?HYPERTERMINAL
	  S:000011H        SYMBOL             num
	  S:000001H        SYMBOL             inputstr
	  C:00885BH        LINE#              143
	  C:00885EH        LINE#              146
	  C:00885EH        LINE#              147
	  C:00885EH        LINE#              148
	  C:008865H        LINE#              149
	  C:00886BH        LINE#              150
	  C:00887BH        LINE#              151
	  C:00887BH        LINE#              152
	  C:008881H        LINE#              153
	  C:008885H        LINE#              155
	  C:008893H        LINE#              156
	  C:008893H        LINE#              157
	  C:00889BH        LINE#              160
	  C:00889BH        LINE#              161
	  C:0088A3H        LINE#              164
	----------         ENDPROC-ST7        
	----------         PROC-ST7           ?PR??SERIALKEYPRESSED?HYPERTERMINAL
	  S:000003H        SYMBOL             key
	  S:000001H        SYMBOL             flag
	  C:0088A4H        LINE#              174
	  C:0088A6H        LINE#              178
	  C:0088AEH        LINE#              179
	  C:0088B5H        LINE#              180
	  C:0088B5H        LINE#              181
	  C:0088BBH        LINE#              182
	  C:0088BFH        LINE#              185
	  C:0088BFH        LINE#              186
	  C:0088C3H        LINE#              188
	----------         ENDPROC-ST7        
	----------         PROC-ST7           ?PR??GETKEY?HYPERTERMINAL
	  S:000001H        SYMBOL             key
	  C:0088C4H        LINE#              197
	  C:0088C5H        LINE#              199
	  C:0088C9H        LINE#              201
	  C:0088C9H        LINE#              202
	  C:0088C9H        LINE#              203
	  C:0088D7H        LINE#              205
	  C:0088DBH        LINE#              206
	----------         ENDPROC-ST7        
	----------         PROC-ST7           ?PR??SERIALPUTCHAR?HYPERTERMINAL
	  S:000001H        SYMBOL             c
	  C:008946H        LINE#              215
	  C:008947H        LINE#              217
	  C:00894CH        LINE#              218
	  C:008965H        LINE#              219
	----------         ENDPROC-ST7        
	----------         PROC-ST7           ?PR??SERIALPUTSTRING?HYPERTERMINAL
	  S:000001H        SYMBOL             s
	  C:008966H        LINE#              228
	  C:008967H        LINE#              230
	  C:00896CH        LINE#              231
	  C:00896CH        LINE#              232
	  C:008972H        LINE#              233
	  C:00897AH        LINE#              235
	----------         ENDPROC-ST7        
	----------         PROC-ST7           ?PR??GETINPUTSTRING?HYPERTERMINAL
	  S:000004H        SYMBOL             buffP
	  S:000001H        SYMBOL             bytes_read
	  S:000003H        SYMBOL             c
	  C:00897BH        LINE#              244
	  C:00897EH        LINE#              246
	  C:008983H        LINE#              247
	  C:008987H        LINE#              248
	  C:008987H        LINE#              249
	  C:008987H        LINE#              250
	  C:00898CH        LINE#              251
	  C:008992H        LINE#              252
	  C:008994H        LINE#              253
	  C:00899AH        LINE#              254
	  C:00899AH        LINE#              255
	  C:0089A1H        LINE#              256
	  C:0089A1H        LINE#              257
	  C:0089A7H        LINE#              258
	  C:0089ACH        LINE#              260
	  C:0089AEH        LINE#              262
	  C:0089B5H        LINE#              263
	  C:0089B5H        LINE#              264
	  C:0089BBH        LINE#              265
	  C:0089C0H        LINE#              266
	  C:0089C2H        LINE#              268
	  C:0089CEH        LINE#              269
	  C:0089CEH        LINE#              270
	  C:0089DAH        LINE#              271
	  C:0089E1H        LINE#              275
	  C:0089E7H        LINE#              276
	  C:0089F1H        LINE#              277
	----------         ENDPROC-ST7        
	----------         PROC-ST7           ?PR??MAIN_MENU?HYPERTERMINAL
	  S:000001H        SYMBOL             choice
	  S:00008DH        SYMBOL             bTreat
	  S:00008FH        SYMBOL             freq_error
	  S:000091H        SYMBOL             freq
	  S:000092H        SYMBOL             freq_choice
	  C:0089F2H        LINE#              287
	  C:0089F4H        LINE#              292
	  C:0089F9H        LINE#              295
	  C:0089F9H        LINE#              296
	  C:0089F9H        LINE#              298
	  C:0089FEH        LINE#              299
	  C:008A04H        LINE#              300
	  C:008A0AH        LINE#              301
	  C:008A10H        LINE#              302
	  C:008A16H        LINE#              303
	  C:008A1CH        LINE#              304
	  C:008A22H        LINE#              305
	  C:008A28H        LINE#              306
	  C:008A2EH        LINE#              307
	  C:008A34H        LINE#              308
	  C:008A3AH        LINE#              309
	  C:008A40H        LINE#              310
	  C:008A46H        LINE#              311
	  C:008A4DH        LINE#              313
	  C:008A5DH        LINE#              314
	  C:008A5DH        LINE#              315
	  C:008A62H        LINE#              317
	  C:008A68H        LINE#              318
	  C:008A73H        LINE#              321
	  C:008A83H        LINE#              322
	  C:008A83H        LINE#              323
	  C:008A88H        LINE#              325
	  C:008A8EH        LINE#              326
	  C:008A99H        LINE#              329
	  C:008AA9H        LINE#              330
	  C:008AA9H        LINE#              331
	  C:008AAEH        LINE#              333
	  C:008AB4H        LINE#              336
	  C:008AC7H        LINE#              337
	  C:008AC7H        LINE#              338
	  C:008ACCH        LINE#              339
	  C:008AD1H        LINE#              340
	  C:008AD7H        LINE#              341
	  C:008ADDH        LINE#              342
	  C:008AE3H        LINE#              343
	  C:008AE9H        LINE#              344
	  C:008AEFH        LINE#              345
	  C:008AF6H        LINE#              346
	  C:008B11H        LINE#              347
	  C:008B11H        LINE#              348
	  C:008B17H        LINE#              349
	  C:008B1DH        LINE#              350
	  C:008B23H        LINE#              351
	  C:008B30H        LINE#              353
	  C:008B34H        LINE#              354
	  C:008B34H        LINE#              355
	  C:008B3AH        LINE#              356
	  C:008B41H        LINE#              357
	  C:008B47H        LINE#              361
	  C:008B57H        LINE#              362
	  C:008B57H        LINE#              363
	  C:008B5CH        LINE#              364
	  C:008B62H        LINE#              367
	  C:008B66H        LINE#              368
	  C:008B66H        LINE#              369
	  C:008B71H        LINE#              372
	----------         ENDPROC-ST7        
	----------         EndModule-ST7      
	----------         TranslatorMod-ST7  MAIN
	  C:008B72H        PUBLIC             main
	  C:008BD5H        PUBLIC             ?LSIMeasurment
	  C:008B72H        SYMBOL             main
	  C:008BD5H        SYMBOL             ?LSIMeasurment
	  T:000000H        SYMBOL             pFunction
	  T:000000H        SYMBOL             va_list
	  T:000000H        SYMBOL             size_t
	  T:000000H        SYMBOL             _fctptr_t
	  T:000000H        SYMBOL             UART2_IT_TypeDef
	  T:000000H        SYMBOL             UART2_Flag_TypeDef
	  T:000000H        SYMBOL             UART2_Mode_TypeDef
	  T:000000H        SYMBOL             UART2_WordLength_TypeDef
	  T:000000H        SYMBOL             UART2_SyncMode_TypeDef
	  T:000000H        SYMBOL             UART2_LinDivUp_TypeDef
	  T:000000H        SYMBOL             UART2_LinAutosync_TypeDef
	  T:000000H        SYMBOL             UART2_LinMode_TypeDef
	  T:000000H        SYMBOL             UART2_Parity_TypeDef
	  T:000000H        SYMBOL             UART2_StopBits_TypeDef
	  T:000000H        SYMBOL             UART2_LINBreakDetectionLength_TypeDef
	  T:000000H        SYMBOL             UART2_WakeUp_TypeDef
	  T:000000H        SYMBOL             UART2_IrDAMode_TypeDef
	  T:000000H        SYMBOL             TIM3_FLAG_TypeDef
	  T:000000H        SYMBOL             TIM3_UpdateSource_TypeDef
	  T:000000H        SYMBOL             TIM3_EventSource_TypeDef
	  T:000000H        SYMBOL             TIM3_PSCReloadMode_TypeDef
	  T:000000H        SYMBOL             TIM3_IT_TypeDef
	  T:000000H        SYMBOL             TIM3_ICPSC_TypeDef
	  T:000000H        SYMBOL             TIM3_ICSelection_TypeDef
	  T:000000H        SYMBOL             TIM3_ICPolarity_TypeDef
	  T:000000H        SYMBOL             TIM3_OutputState_TypeDef
	  T:000000H        SYMBOL             TIM3_OCPolarity_TypeDef
	  T:000000H        SYMBOL             TIM3_Channel_TypeDef
	  T:000000H        SYMBOL             TIM3_OPMode_TypeDef
	  T:000000H        SYMBOL             TIM3_OCMode_TypeDef
	  T:000000H        SYMBOL             TIM3_Prescaler_TypeDef
	  T:000000H        SYMBOL             TIM3_ForcedAction_TypeDef
	  T:000000H        SYMBOL             GPIO_Pin_TypeDef
	  T:000000H        SYMBOL             GPIO_Mode_TypeDef
	  T:000000H        SYMBOL             CLK_CANDivider_TypeDef
	  T:000000H        SYMBOL             CLK_SWIMDivider_TypeDef
	  T:000000H        SYMBOL             CLK_Prescaler_TypeDef
	  T:000000H        SYMBOL             CLK_IT_TypeDef
	  T:000000H        SYMBOL             CLK_Flag_TypeDef
	  T:000000H        SYMBOL             CLK_Peripheral_TypeDef
	  T:000000H        SYMBOL             CLK_Output_TypeDef
	  T:000000H        SYMBOL             CLK_HSITrimValue_TypeDef
	  T:000000H        SYMBOL             CLK_Source_TypeDef
	  T:000000H        SYMBOL             CLK_CSSConfig_TypeDef
	  T:000000H        SYMBOL             CLK_CurrentClockState_TypeDef
	  T:000000H        SYMBOL             CLK_SwitchMode_TypeDef
	  T:000000H        SYMBOL             BEEP_Frequency_TypeDef
	  T:000000H        SYMBOL             CFG_TypeDef
	  T:000000H        SYMBOL             CAN_TypeDef
	  T:000000H        SYMBOL             UART3_TypeDef
	  T:000000H        SYMBOL             UART2_TypeDef
	  T:000000H        SYMBOL             UART1_TypeDef
	  T:000000H        SYMBOL             SWIM_TypeDef
	  T:000000H        SYMBOL             SPI_TypeDef
	  T:000000H        SYMBOL             RST_TypeDef
	  T:000000H        SYMBOL             WWDG_TypeDef
	  T:000000H        SYMBOL             IWDG_TypeDef
	  T:000000H        SYMBOL             OPT_TypeDef
	  T:000000H        SYMBOL             FLASH_TypeDef
	  T:000000H        SYMBOL             EXTI_TypeDef
	  T:000000H        SYMBOL             ITC_TypeDef
	  T:000000H        SYMBOL             I2C_TypeDef
	  T:000000H        SYMBOL             TIM6_TypeDef
	  T:000000H        SYMBOL             TIM5_TypeDef
	  T:000000H        SYMBOL             TIM4_TypeDef
	  T:000000H        SYMBOL             TIM3_TypeDef
	  T:000000H        SYMBOL             TIM2_TypeDef
	  T:000000H        SYMBOL             TIM1_TypeDef
	  T:000000H        SYMBOL             CLK_TypeDef
	  T:000000H        SYMBOL             BEEP_TypeDef
	  T:000000H        SYMBOL             AWU_TypeDef
	  T:000000H        SYMBOL             ADC1_TypeDef
	  T:000000H        SYMBOL             GPIO_TypeDef
	  T:000000H        SYMBOL             ErrorStatus
	  T:000000H        SYMBOL             FunctionalState
	  T:000000H        SYMBOL             BitStatus
	  T:000000H        SYMBOL             ITStatus
	  T:000000H        SYMBOL             FlagStatus
	  T:000000H        SYMBOL             bool
	  T:000000H        SYMBOL             vuc8
	  T:000000H        SYMBOL             vuc16
	  T:000000H        SYMBOL             vuc32
	  T:000000H        SYMBOL             vu8
	  T:000000H        SYMBOL             vu16
	  T:000000H        SYMBOL             vu32
	  T:000000H        SYMBOL             uc8
	  T:000000H        SYMBOL             uc16
	  T:000000H        SYMBOL             uc32
	  T:000000H        SYMBOL             u8
	  T:000000H        SYMBOL             u16
	  T:000000H        SYMBOL             u32
	  T:000000H        SYMBOL             vsc8
	  T:000000H        SYMBOL             vsc16
	  T:000000H        SYMBOL             vsc32
	  T:000000H        SYMBOL             vs8
	  T:000000H        SYMBOL             vs16
	  T:000000H        SYMBOL             vs32
	  T:000000H        SYMBOL             sc8
	  T:000000H        SYMBOL             sc16
	  T:000000H        SYMBOL             sc32
	  T:000000H        SYMBOL             s8
	  T:000000H        SYMBOL             s16
	  T:000000H        SYMBOL             s32
	  N:000FFEH        SYMBOL             _ICE_DUMMY_
	----------         PROC-ST7           ?PR?MAIN?MAIN
	  C:008B72H        LINE#              41
	  C:008B72H        LINE#              43
	  C:008B75H        LINE#              45
	  C:008B80H        LINE#              46
	  C:008B8BH        LINE#              49
	  C:008B8CH        LINE#              52
	  C:008B9CH        LINE#              55
	  C:008BA2H        LINE#              67
	  C:008BA5H        LINE#              68
	  C:008BC4H        LINE#              71
	  C:008BCFH        LINE#              74
	  C:008BCFH        LINE#              75
	  C:008BD4H        LINE#              77
	----------         ENDPROC-ST7        
	----------         PROC-ST7           ?PR??LSIMEASURMENT?MAIN
	  S:000001H        SYMBOL             lsi_freq_hz
	  S:000005H        SYMBOL             fmaster
	  S:000009H        SYMBOL             ICValue1
	  S:00000BH        SYMBOL             ICValue2
	  C:008BD5H        LINE#              80
	  C:008BD7H        LINE#              83
	  C:008BDCH        LINE#              84
	  C:008BE1H        LINE#              85
	  C:008BE6H        LINE#              86
	  C:008BEBH        LINE#              89
	  C:008BF3H        LINE#              92
	  C:008BFFH        LINE#              126
	  C:008C15H        LINE#              129
	  C:008C1BH        LINE#              132
	  C:008C2EH        LINE#              134
	  C:008C33H        LINE#              135
	  C:008C39H        LINE#              138
	  C:008C4CH        LINE#              140
	  C:008C51H        LINE#              141
	  C:008C57H        LINE#              144
	  C:008C63H        LINE#              146
	  C:008C69H        LINE#              150
	  C:008C87H        LINE#              153
	  C:008C93H        LINE#              155
	  C:008C99H        LINE#              156
	----------         ENDPROC-ST7        
	----------         EndModule-ST7      
	----------         TranslatorMod-ST7  STM8S_IT
	  C:008339H        PUBLIC             ?EEPROM_EEC_IRQHandler
	  C:008338H        PUBLIC             ?TIM4_UPD_OVF_IRQHandler
	  C:008337H        PUBLIC             ?ADC1_IRQHandler
	  C:008336H        PUBLIC             ?UART2_RX_IRQHandler
	  C:008335H        PUBLIC             ?UART2_TX_IRQHandler
	  C:008334H        PUBLIC             ?I2C_IRQHandler
	  C:008333H        PUBLIC             ?TIM3_CAP_COM_IRQHandler
	  C:0082F8H        PUBLIC             ?TIM3_UPD_OVF_BRK_IRQHandler
	  C:008052H        PUBLIC             ?TIM2_CAP_COM_IRQHandler
	  C:008051H        PUBLIC             ?TIM2_UPD_OVF_BRK_IRQHandler
	  C:008050H        PUBLIC             ?TIM1_CAP_COM_IRQHandler
	  C:00804FH        PUBLIC             ?TIM1_UPD_OVF_TRG_BRK_IRQHandler
	  C:00804EH        PUBLIC             ?SPI_IRQHandler
	  C:00804DH        PUBLIC             ?EXTI_PORTE_IRQHandler
	  C:00804CH        PUBLIC             ?EXTI_PORTD_IRQHandler
	  C:00802EH        PUBLIC             ?EXTI_PORTC_IRQHandler
	  C:00802DH        PUBLIC             ?EXTI_PORTB_IRQHandler
	  C:00802CH        PUBLIC             ?EXTI_PORTA_IRQHandler
	  C:00802BH        PUBLIC             ?CLK_IRQHandler
	  C:00802AH        PUBLIC             ?AWU_IRQHandler
	  C:008029H        PUBLIC             ?TLI_IRQHandler
	  C:008028H        PUBLIC             ?TRAP_IRQHandler
	  D:000036H        PUBLIC             nbintr
	  D:000034H        PUBLIC             RxCounter
	  D:000033H        PUBLIC             TxCounter
	  D:000020H        PUBLIC             NbrOfDataToRead
	  D:000032H        PUBLIC             NbrOfDataToTransfer
	  D:000000H        PUBLIC             RxBuffer
	  D:000031H        PUBLIC             TxBuffer
	  C:008339H        SYMBOL             ?EEPROM_EEC_IRQHandler
	  C:008338H        SYMBOL             ?TIM4_UPD_OVF_IRQHandler
	  C:008337H        SYMBOL             ?ADC1_IRQHandler
	  C:008336H        SYMBOL             ?UART2_RX_IRQHandler
	  C:008335H        SYMBOL             ?UART2_TX_IRQHandler
	  C:008334H        SYMBOL             ?I2C_IRQHandler
	  C:008333H        SYMBOL             ?TIM3_CAP_COM_IRQHandler
	  C:0082F8H        SYMBOL             ?TIM3_UPD_OVF_BRK_IRQHandler
	  C:008052H        SYMBOL             ?TIM2_CAP_COM_IRQHandler
	  C:008051H        SYMBOL             ?TIM2_UPD_OVF_BRK_IRQHandler
	  C:008050H        SYMBOL             ?TIM1_CAP_COM_IRQHandler
	  C:00804FH        SYMBOL             ?TIM1_UPD_OVF_TRG_BRK_IRQHandler
	  C:00804EH        SYMBOL             ?SPI_IRQHandler
	  C:00804DH        SYMBOL             ?EXTI_PORTE_IRQHandler
	  C:00804CH        SYMBOL             ?EXTI_PORTD_IRQHandler
	  C:00802EH        SYMBOL             ?EXTI_PORTC_IRQHandler
	  C:00802DH        SYMBOL             ?EXTI_PORTB_IRQHandler
	  C:00802CH        SYMBOL             ?EXTI_PORTA_IRQHandler
	  C:00802BH        SYMBOL             ?CLK_IRQHandler
	  C:00802AH        SYMBOL             ?AWU_IRQHandler
	  C:008029H        SYMBOL             ?TLI_IRQHandler
	  C:008028H        SYMBOL             ?TRAP_IRQHandler
	  D:000036H        SYMBOL             nbintr
	  D:000034H        SYMBOL             RxCounter
	  D:000033H        SYMBOL             TxCounter
	  D:000020H        SYMBOL             NbrOfDataToRead
	  D:000032H        SYMBOL             NbrOfDataToTransfer
	  D:000000H        SYMBOL             RxBuffer
	  D:000031H        SYMBOL             TxBuffer
	  T:000000H        SYMBOL             _fctptr_t
	  T:000000H        SYMBOL             UART2_IT_TypeDef
	  T:000000H        SYMBOL             UART2_Flag_TypeDef
	  T:000000H        SYMBOL             UART2_Mode_TypeDef
	  T:000000H        SYMBOL             UART2_WordLength_TypeDef
	  T:000000H        SYMBOL             UART2_SyncMode_TypeDef
	  T:000000H        SYMBOL             UART2_LinDivUp_TypeDef
	  T:000000H        SYMBOL             UART2_LinAutosync_TypeDef
	  T:000000H        SYMBOL             UART2_LinMode_TypeDef
	  T:000000H        SYMBOL             UART2_Parity_TypeDef
	  T:000000H        SYMBOL             UART2_StopBits_TypeDef
	  T:000000H        SYMBOL             UART2_LINBreakDetectionLength_TypeDef
	  T:000000H        SYMBOL             UART2_WakeUp_TypeDef
	  T:000000H        SYMBOL             UART2_IrDAMode_TypeDef
	  T:000000H        SYMBOL             TIM3_FLAG_TypeDef
	  T:000000H        SYMBOL             TIM3_UpdateSource_TypeDef
	  T:000000H        SYMBOL             TIM3_EventSource_TypeDef
	  T:000000H        SYMBOL             TIM3_PSCReloadMode_TypeDef
	  T:000000H        SYMBOL             TIM3_IT_TypeDef
	  T:000000H        SYMBOL             TIM3_ICPSC_TypeDef
	  T:000000H        SYMBOL             TIM3_ICSelection_TypeDef
	  T:000000H        SYMBOL             TIM3_ICPolarity_TypeDef
	  T:000000H        SYMBOL             TIM3_OutputState_TypeDef
	  T:000000H        SYMBOL             TIM3_OCPolarity_TypeDef
	  T:000000H        SYMBOL             TIM3_Channel_TypeDef
	  T:000000H        SYMBOL             TIM3_OPMode_TypeDef
	  T:000000H        SYMBOL             TIM3_OCMode_TypeDef
	  T:000000H        SYMBOL             TIM3_Prescaler_TypeDef
	  T:000000H        SYMBOL             TIM3_ForcedAction_TypeDef
	  T:000000H        SYMBOL             GPIO_Pin_TypeDef
	  T:000000H        SYMBOL             GPIO_Mode_TypeDef
	  T:000000H        SYMBOL             CLK_CANDivider_TypeDef
	  T:000000H        SYMBOL             CLK_SWIMDivider_TypeDef
	  T:000000H        SYMBOL             CLK_Prescaler_TypeDef
	  T:000000H        SYMBOL             CLK_IT_TypeDef
	  T:000000H        SYMBOL             CLK_Flag_TypeDef
	  T:000000H        SYMBOL             CLK_Peripheral_TypeDef
	  T:000000H        SYMBOL             CLK_Output_TypeDef
	  T:000000H        SYMBOL             CLK_HSITrimValue_TypeDef
	  T:000000H        SYMBOL             CLK_Source_TypeDef
	  T:000000H        SYMBOL             CLK_CSSConfig_TypeDef
	  T:000000H        SYMBOL             CLK_CurrentClockState_TypeDef
	  T:000000H        SYMBOL             CLK_SwitchMode_TypeDef
	  T:000000H        SYMBOL             BEEP_Frequency_TypeDef
	  T:000000H        SYMBOL             CFG_TypeDef
	  T:000000H        SYMBOL             CAN_TypeDef
	  T:000000H        SYMBOL             UART3_TypeDef
	  T:000000H        SYMBOL             UART2_TypeDef
	  T:000000H        SYMBOL             UART1_TypeDef
	  T:000000H        SYMBOL             SWIM_TypeDef
	  T:000000H        SYMBOL             SPI_TypeDef
	  T:000000H        SYMBOL             RST_TypeDef
	  T:000000H        SYMBOL             WWDG_TypeDef
	  T:000000H        SYMBOL             IWDG_TypeDef
	  T:000000H        SYMBOL             OPT_TypeDef
	  T:000000H        SYMBOL             FLASH_TypeDef
	  T:000000H        SYMBOL             EXTI_TypeDef
	  T:000000H        SYMBOL             ITC_TypeDef
	  T:000000H        SYMBOL             I2C_TypeDef
	  T:000000H        SYMBOL             TIM6_TypeDef
	  T:000000H        SYMBOL             TIM5_TypeDef
	  T:000000H        SYMBOL             TIM4_TypeDef
	  T:000000H        SYMBOL             TIM3_TypeDef
	  T:000000H        SYMBOL             TIM2_TypeDef
	  T:000000H        SYMBOL             TIM1_TypeDef
	  T:000000H        SYMBOL             CLK_TypeDef
	  T:000000H        SYMBOL             BEEP_TypeDef
	  T:000000H        SYMBOL             AWU_TypeDef
	  T:000000H        SYMBOL             ADC1_TypeDef
	  T:000000H        SYMBOL             GPIO_TypeDef
	  T:000000H        SYMBOL             ErrorStatus
	  T:000000H        SYMBOL             FunctionalState
	  T:000000H        SYMBOL             BitStatus
	  T:000000H        SYMBOL             ITStatus
	  T:000000H        SYMBOL             FlagStatus
	  T:000000H        SYMBOL             bool
	  T:000000H        SYMBOL             vuc8
	  T:000000H        SYMBOL             vuc16
	  T:000000H        SYMBOL             vuc32
	  T:000000H        SYMBOL             vu8
	  T:000000H        SYMBOL             vu16
	  T:000000H        SYMBOL             vu32
	  T:000000H        SYMBOL             uc8
	  T:000000H        SYMBOL             uc16
	  T:000000H        SYMBOL             uc32
	  T:000000H        SYMBOL             u8
	  T:000000H        SYMBOL             u16
	  T:000000H        SYMBOL             u32
	  T:000000H        SYMBOL             vsc8
	  T:000000H        SYMBOL             vsc16
	  T:000000H        SYMBOL             vsc32
	  T:000000H        SYMBOL             vs8
	  T:000000H        SYMBOL             vs16
	  T:000000H        SYMBOL             vs32
	  T:000000H        SYMBOL             sc8
	  T:000000H        SYMBOL             sc16
	  T:000000H        SYMBOL             sc32
	  T:000000H        SYMBOL             s8
	  T:000000H        SYMBOL             s16
	  T:000000H        SYMBOL             s32
	  N:000FFEH        SYMBOL             _ICE_DUMMY_
	----------         PROC-ST7           ?PR??TRAP_IRQHANDLER?STM8S_IT
	  C:008028H        LINE#              88
	  C:008028H        LINE#              93
	----------         ENDPROC-ST7        
	----------         PROC-ST7           ?PR??TLI_IRQHANDLER?STM8S_IT
	  C:008029H        LINE#              106
	  C:008029H        LINE#              112
	----------         ENDPROC-ST7        
	----------         PROC-ST7           ?PR??AWU_IRQHANDLER?STM8S_IT
	  C:00802AH        LINE#              124
	  C:00802AH        LINE#              130
	----------         ENDPROC-ST7        
	----------         PROC-ST7           ?PR??CLK_IRQHANDLER?STM8S_IT
	  C:00802BH        LINE#              142
	  C:00802BH        LINE#              148
	----------         ENDPROC-ST7        
	----------         PROC-ST7           ?PR??EXTI_PORTA_IRQHANDLER?STM8S_IT
	  C:00802CH        LINE#              160
	  C:00802CH        LINE#              166
	----------         ENDPROC-ST7        
	----------         PROC-ST7           ?PR??EXTI_PORTB_IRQHANDLER?STM8S_IT
	  C:00802DH        LINE#              178
	  C:00802DH        LINE#              184
	----------         ENDPROC-ST7        
	----------         PROC-ST7           ?PR??EXTI_PORTC_IRQHANDLER?STM8S_IT
	  C:00802EH        LINE#              196
	  C:00802EH        LINE#              202
	----------         ENDPROC-ST7        
	----------         PROC-ST7           ?PR??EXTI_PORTD_IRQHANDLER?STM8S_IT
	  C:00804CH        LINE#              214
	  C:00804CH        LINE#              220
	----------         ENDPROC-ST7        
	----------         PROC-ST7           ?PR??EXTI_PORTE_IRQHANDLER?STM8S_IT
	  C:00804DH        LINE#              232
	  C:00804DH        LINE#              238
	----------         ENDPROC-ST7        
	----------         PROC-ST7           ?PR??SPI_IRQHANDLER?STM8S_IT
	  C:00804EH        LINE#              307
	  C:00804EH        LINE#              313
	----------         ENDPROC-ST7        
	----------         PROC-ST7           ?PR??TIM1_UPD_OVF_TRG_BRK_IRQHANDLER?STM8S_IT
	  C:00804FH        LINE#              325
	  C:00804FH        LINE#              331
	----------         ENDPROC-ST7        
	----------         PROC-ST7           ?PR??TIM1_CAP_COM_IRQHANDLER?STM8S_IT
	  C:008050H        LINE#              343
	  C:008050H        LINE#              349
	----------         ENDPROC-ST7        
	----------         PROC-ST7           ?PR??TIM2_UPD_OVF_BRK_IRQHANDLER?STM8S_IT
	  C:008051H        LINE#              398
	  C:008051H        LINE#              404
	----------         ENDPROC-ST7        
	----------         PROC-ST7           ?PR??TIM2_CAP_COM_IRQHANDLER?STM8S_IT
	  C:008052H        LINE#              416
	  C:008052H        LINE#              422
	----------         ENDPROC-ST7        
	----------         PROC-ST7           ?PR??TIM3_UPD_OVF_BRK_IRQHANDLER?STM8S_IT
	  C:0082F8H        LINE#              436
	  C:008304H        LINE#              439
	  C:008309H        LINE#              442
	  C:008310H        LINE#              443
	  C:00831BH        LINE#              444
	  C:008320H        LINE#              446
	  C:008332H        LINE#              447
	----------         ENDPROC-ST7        
	----------         PROC-ST7           ?PR??TIM3_CAP_COM_IRQHANDLER?STM8S_IT
	  C:008333H        LINE#              459
	  C:008333H        LINE#              463
	----------         ENDPROC-ST7        
	----------         PROC-ST7           ?PR??I2C_IRQHANDLER?STM8S_IT
	  C:008334H        LINE#              524
	  C:008334H        LINE#              530
	----------         ENDPROC-ST7        
	----------         PROC-ST7           ?PR??UART2_TX_IRQHANDLER?STM8S_IT
	  C:008335H        LINE#              543
	  C:008335H        LINE#              549
	----------         ENDPROC-ST7        
	----------         PROC-ST7           ?PR??UART2_RX_IRQHANDLER?STM8S_IT
	  C:008336H        LINE#              561
	  C:008336H        LINE#              567
	----------         ENDPROC-ST7        
	----------         PROC-ST7           ?PR??ADC1_IRQHANDLER?STM8S_IT
	  C:008337H        LINE#              640
	  C:008337H        LINE#              647
	  C:008337H        LINE#              649
	----------         ENDPROC-ST7        
	----------         PROC-ST7           ?PR??TIM4_UPD_OVF_IRQHANDLER?STM8S_IT
	  C:008338H        LINE#              681
	  C:008338H        LINE#              687
	----------         ENDPROC-ST7        
	----------         PROC-ST7           ?PR??EEPROM_EEC_IRQHANDLER?STM8S_IT
	  C:008339H        LINE#              700
	  C:008339H        LINE#              706
	----------         ENDPROC-ST7        
	----------         EndModule-ST7      
	----------         TranslatorMod-ST7  STM8S_BEEP
	  C:008D06H        PUBLIC             ?BEEP_LSICalibrationConfig
	  C:008CE5H        PUBLIC             ?BEEP_Cmd
	  C:008C9FH        PUBLIC             ?BEEP_Init
	  C:008C9AH        PUBLIC             ?BEEP_DeInit
	  C:008D06H        SYMBOL             ?BEEP_LSICalibrationConfig
	  C:008CE5H        SYMBOL             ?BEEP_Cmd
	  C:008C9FH        SYMBOL             ?BEEP_Init
	  C:008C9AH        SYMBOL             ?BEEP_DeInit
	  T:000000H        SYMBOL             BEEP_Frequency_TypeDef
	  T:000000H        SYMBOL             _fctptr_t
	  T:000000H        SYMBOL             UART2_IT_TypeDef
	  T:000000H        SYMBOL             UART2_Flag_TypeDef
	  T:000000H        SYMBOL             UART2_Mode_TypeDef
	  T:000000H        SYMBOL             UART2_WordLength_TypeDef
	  T:000000H        SYMBOL             UART2_SyncMode_TypeDef
	  T:000000H        SYMBOL             UART2_LinDivUp_TypeDef
	  T:000000H        SYMBOL             UART2_LinAutosync_TypeDef
	  T:000000H        SYMBOL             UART2_LinMode_TypeDef
	  T:000000H        SYMBOL             UART2_Parity_TypeDef
	  T:000000H        SYMBOL             UART2_StopBits_TypeDef
	  T:000000H        SYMBOL             UART2_LINBreakDetectionLength_TypeDef
	  T:000000H        SYMBOL             UART2_WakeUp_TypeDef
	  T:000000H        SYMBOL             UART2_IrDAMode_TypeDef
	  T:000000H        SYMBOL             TIM3_FLAG_TypeDef
	  T:000000H        SYMBOL             TIM3_UpdateSource_TypeDef
	  T:000000H        SYMBOL             TIM3_EventSource_TypeDef
	  T:000000H        SYMBOL             TIM3_PSCReloadMode_TypeDef
	  T:000000H        SYMBOL             TIM3_IT_TypeDef
	  T:000000H        SYMBOL             TIM3_ICPSC_TypeDef
	  T:000000H        SYMBOL             TIM3_ICSelection_TypeDef
	  T:000000H        SYMBOL             TIM3_ICPolarity_TypeDef
	  T:000000H        SYMBOL             TIM3_OutputState_TypeDef
	  T:000000H        SYMBOL             TIM3_OCPolarity_TypeDef
	  T:000000H        SYMBOL             TIM3_Channel_TypeDef
	  T:000000H        SYMBOL             TIM3_OPMode_TypeDef
	  T:000000H        SYMBOL             TIM3_OCMode_TypeDef
	  T:000000H        SYMBOL             TIM3_Prescaler_TypeDef
	  T:000000H        SYMBOL             TIM3_ForcedAction_TypeDef
	  T:000000H        SYMBOL             GPIO_Pin_TypeDef
	  T:000000H        SYMBOL             GPIO_Mode_TypeDef
	  T:000000H        SYMBOL             CLK_CANDivider_TypeDef
	  T:000000H        SYMBOL             CLK_SWIMDivider_TypeDef
	  T:000000H        SYMBOL             CLK_Prescaler_TypeDef
	  T:000000H        SYMBOL             CLK_IT_TypeDef
	  T:000000H        SYMBOL             CLK_Flag_TypeDef
	  T:000000H        SYMBOL             CLK_Peripheral_TypeDef
	  T:000000H        SYMBOL             CLK_Output_TypeDef
	  T:000000H        SYMBOL             CLK_HSITrimValue_TypeDef
	  T:000000H        SYMBOL             CLK_Source_TypeDef
	  T:000000H        SYMBOL             CLK_CSSConfig_TypeDef
	  T:000000H        SYMBOL             CLK_CurrentClockState_TypeDef
	  T:000000H        SYMBOL             CLK_SwitchMode_TypeDef
	  T:000000H        SYMBOL             CFG_TypeDef
	  T:000000H        SYMBOL             CAN_TypeDef
	  T:000000H        SYMBOL             UART3_TypeDef
	  T:000000H        SYMBOL             UART2_TypeDef
	  T:000000H        SYMBOL             UART1_TypeDef
	  T:000000H        SYMBOL             SWIM_TypeDef
	  T:000000H        SYMBOL             SPI_TypeDef
	  T:000000H        SYMBOL             RST_TypeDef
	  T:000000H        SYMBOL             WWDG_TypeDef
	  T:000000H        SYMBOL             IWDG_TypeDef
	  T:000000H        SYMBOL             OPT_TypeDef
	  T:000000H        SYMBOL             FLASH_TypeDef
	  T:000000H        SYMBOL             EXTI_TypeDef
	  T:000000H        SYMBOL             ITC_TypeDef
	  T:000000H        SYMBOL             I2C_TypeDef
	  T:000000H        SYMBOL             TIM6_TypeDef
	  T:000000H        SYMBOL             TIM5_TypeDef
	  T:000000H        SYMBOL             TIM4_TypeDef
	  T:000000H        SYMBOL             TIM3_TypeDef
	  T:000000H        SYMBOL             TIM2_TypeDef
	  T:000000H        SYMBOL             TIM1_TypeDef
	  T:000000H        SYMBOL             CLK_TypeDef
	  T:000000H        SYMBOL             BEEP_TypeDef
	  T:000000H        SYMBOL             AWU_TypeDef
	  T:000000H        SYMBOL             ADC1_TypeDef
	  T:000000H        SYMBOL             GPIO_TypeDef
	  T:000000H        SYMBOL             ErrorStatus
	  T:000000H        SYMBOL             FunctionalState
	  T:000000H        SYMBOL             BitStatus
	  T:000000H        SYMBOL             ITStatus
	  T:000000H        SYMBOL             FlagStatus
	  T:000000H        SYMBOL             bool
	  T:000000H        SYMBOL             vuc8
	  T:000000H        SYMBOL             vuc16
	  T:000000H        SYMBOL             vuc32
	  T:000000H        SYMBOL             vu8
	  T:000000H        SYMBOL             vu16
	  T:000000H        SYMBOL             vu32
	  T:000000H        SYMBOL             uc8
	  T:000000H        SYMBOL             uc16
	  T:000000H        SYMBOL             uc32
	  T:000000H        SYMBOL             u8
	  T:000000H        SYMBOL             u16
	  T:000000H        SYMBOL             u32
	  T:000000H        SYMBOL             vsc8
	  T:000000H        SYMBOL             vsc16
	  T:000000H        SYMBOL             vsc32
	  T:000000H        SYMBOL             vs8
	  T:000000H        SYMBOL             vs16
	  T:000000H        SYMBOL             vs32
	  T:000000H        SYMBOL             sc8
	  T:000000H        SYMBOL             sc16
	  T:000000H        SYMBOL             sc32
	  T:000000H        SYMBOL             s8
	  T:000000H        SYMBOL             s16
	  T:000000H        SYMBOL             s32
	  N:000FFEH        SYMBOL             _ICE_DUMMY_
	----------         PROC-ST7           ?PR??BEEP_DEINIT?STM8S_BEEP
	  C:008C9AH        LINE#              46
	  C:008C9AH        LINE#              48
	  C:008C9EH        LINE#              49
	----------         ENDPROC-ST7        
	----------         PROC-ST7           ?PR??BEEP_INIT?STM8S_BEEP
	  S:000001H        SYMBOL             BEEP_Frequency
	  C:008C9FH        LINE#              59
	  C:008CA0H        LINE#              63
	  C:008CA0H        LINE#              66
	  C:008CB3H        LINE#              67
	  C:008CB3H        LINE#              68
	  C:008CBFH        LINE#              69
	  C:008CCBH        LINE#              73
	  C:008CD7H        LINE#              74
	  C:008CE4H        LINE#              76
	----------         ENDPROC-ST7        
	----------         PROC-ST7           ?PR??BEEP_CMD?STM8S_BEEP
	  S:000001H        SYMBOL             NewState
	  C:008CE5H        LINE#              85
	  C:008CE6H        LINE#              87
	  C:008CEAH        LINE#              88
	  C:008CEAH        LINE#              90
	  C:008CF8H        LINE#              93
	  C:008CF8H        LINE#              95
	  C:008D05H        LINE#              97
	----------         ENDPROC-ST7        
	----------         PROC-ST7           ?PR??BEEP_LSICALIBRATIONCONFIG?STM8S_BEEP
	  S:000007H        SYMBOL             LSIFreqHz
	  S:000001H        SYMBOL             lsifreqkhz
	  S:000003H        SYMBOL             A
	  C:008D06H        LINE#              112
	  C:008D08H        LINE#              119
	  C:008D08H        LINE#              121
	  C:008D19H        LINE#              125
	  C:008D25H        LINE#              127
	  C:008D2CH        LINE#              129
	  C:008D5BH        LINE#              130
	  C:008D5BH        LINE#              131
	  C:008D6DH        LINE#              134
	  C:008D6DH        LINE#              135
	  C:008D7DH        LINE#              139
	  C:008D8BH        LINE#              141
	----------         ENDPROC-ST7        
	----------         EndModule-ST7      
	----------         TranslatorMod-ST7  STM8S_CLK
	  D:000025H        PUBLIC             CLKPrescTable
	  D:000021H        PUBLIC             HSIDivFactor
	  C:00937EH        PUBLIC             ?CLK_ClearITPendingBit
	  C:009309H        PUBLIC             ?CLK_GetITStatus
	  C:009278H        PUBLIC             ?CLK_GetFlagStatus
	  C:0091B7H        PUBLIC             ?CLK_GetSYSCLKSource
	  C:0091BDH        PUBLIC             ?CLK_GetClockFreq
	  C:009242H        PUBLIC             ?CLK_AdjustHSICalibrationValue
	  C:00926BH        PUBLIC             ?CLK_SYSCLKEmergencyClear
	  C:0091AAH        PUBLIC             ?CLK_ClockSecuritySystemEnable
	  C:00918FH        PUBLIC             ?CLK_CANConfig
	  C:00916EH        PUBLIC             ?CLK_SWIMConfig
	  C:009109H        PUBLIC             ?CLK_SYSCLKConfig
	  C:0090A8H        PUBLIC             ?CLK_ITConfig
	  C:009081H        PUBLIC             ?CLK_CCOConfig
	  C:009066H        PUBLIC             ?CLK_HSIPrescalerConfig
	  C:008F81H        PUBLIC             ?CLK_ClockSwitchConfig
	  C:008EB4H        PUBLIC             ?CLK_PeripheralClockConfig
	  C:008E93H        PUBLIC             ?CLK_SlowActiveHaltWakeUpCmd
	  C:008DCDH        PUBLIC             ?CLK_FastHaltWakeUpCmd
	  C:008E72H        PUBLIC             ?CLK_ClockSwitchCmd
	  C:008E51H        PUBLIC             ?CLK_CCOCmd
	  C:008E30H        PUBLIC             ?CLK_LSICmd
	  C:008E0FH        PUBLIC             ?CLK_HSICmd
	  C:008DEEH        PUBLIC             ?CLK_HSECmd
	  C:008D8CH        PUBLIC             ?CLK_DeInit
	  D:000025H        SYMBOL             CLKPrescTable
	  D:000021H        SYMBOL             HSIDivFactor
	  C:00937EH        SYMBOL             ?CLK_ClearITPendingBit
	  C:009309H        SYMBOL             ?CLK_GetITStatus
	  C:009278H        SYMBOL             ?CLK_GetFlagStatus
	  C:0091B7H        SYMBOL             ?CLK_GetSYSCLKSource
	  C:0091BDH        SYMBOL             ?CLK_GetClockFreq
	  C:009242H        SYMBOL             ?CLK_AdjustHSICalibrationValue
	  C:00926BH        SYMBOL             ?CLK_SYSCLKEmergencyClear
	  C:0091AAH        SYMBOL             ?CLK_ClockSecuritySystemEnable
	  C:00918FH        SYMBOL             ?CLK_CANConfig
	  C:00916EH        SYMBOL             ?CLK_SWIMConfig
	  C:009109H        SYMBOL             ?CLK_SYSCLKConfig
	  C:0090A8H        SYMBOL             ?CLK_ITConfig
	  C:009081H        SYMBOL             ?CLK_CCOConfig
	  C:009066H        SYMBOL             ?CLK_HSIPrescalerConfig
	  C:008F81H        SYMBOL             ?CLK_ClockSwitchConfig
	  C:008EB4H        SYMBOL             ?CLK_PeripheralClockConfig
	  C:008E93H        SYMBOL             ?CLK_SlowActiveHaltWakeUpCmd
	  C:008DCDH        SYMBOL             ?CLK_FastHaltWakeUpCmd
	  C:008E72H        SYMBOL             ?CLK_ClockSwitchCmd
	  C:008E51H        SYMBOL             ?CLK_CCOCmd
	  C:008E30H        SYMBOL             ?CLK_LSICmd
	  C:008E0FH        SYMBOL             ?CLK_HSICmd
	  C:008DEEH        SYMBOL             ?CLK_HSECmd
	  C:008D8CH        SYMBOL             ?CLK_DeInit
	  T:000000H        SYMBOL             CLK_CANDivider_TypeDef
	  T:000000H        SYMBOL             CLK_SWIMDivider_TypeDef
	  T:000000H        SYMBOL             CLK_Prescaler_TypeDef
	  T:000000H        SYMBOL             CLK_IT_TypeDef
	  T:000000H        SYMBOL             CLK_Flag_TypeDef
	  T:000000H        SYMBOL             CLK_Peripheral_TypeDef
	  T:000000H        SYMBOL             CLK_Output_TypeDef
	  T:000000H        SYMBOL             CLK_HSITrimValue_TypeDef
	  T:000000H        SYMBOL             CLK_Source_TypeDef
	  T:000000H        SYMBOL             CLK_CSSConfig_TypeDef
	  T:000000H        SYMBOL             CLK_CurrentClockState_TypeDef
	  T:000000H        SYMBOL             CLK_SwitchMode_TypeDef
	  T:000000H        SYMBOL             _fctptr_t
	  T:000000H        SYMBOL             UART2_IT_TypeDef
	  T:000000H        SYMBOL             UART2_Flag_TypeDef
	  T:000000H        SYMBOL             UART2_Mode_TypeDef
	  T:000000H        SYMBOL             UART2_WordLength_TypeDef
	  T:000000H        SYMBOL             UART2_SyncMode_TypeDef
	  T:000000H        SYMBOL             UART2_LinDivUp_TypeDef
	  T:000000H        SYMBOL             UART2_LinAutosync_TypeDef
	  T:000000H        SYMBOL             UART2_LinMode_TypeDef
	  T:000000H        SYMBOL             UART2_Parity_TypeDef
	  T:000000H        SYMBOL             UART2_StopBits_TypeDef
	  T:000000H        SYMBOL             UART2_LINBreakDetectionLength_TypeDef
	  T:000000H        SYMBOL             UART2_WakeUp_TypeDef
	  T:000000H        SYMBOL             UART2_IrDAMode_TypeDef
	  T:000000H        SYMBOL             TIM3_FLAG_TypeDef
	  T:000000H        SYMBOL             TIM3_UpdateSource_TypeDef
	  T:000000H        SYMBOL             TIM3_EventSource_TypeDef
	  T:000000H        SYMBOL             TIM3_PSCReloadMode_TypeDef
	  T:000000H        SYMBOL             TIM3_IT_TypeDef
	  T:000000H        SYMBOL             TIM3_ICPSC_TypeDef
	  T:000000H        SYMBOL             TIM3_ICSelection_TypeDef
	  T:000000H        SYMBOL             TIM3_ICPolarity_TypeDef
	  T:000000H        SYMBOL             TIM3_OutputState_TypeDef
	  T:000000H        SYMBOL             TIM3_OCPolarity_TypeDef
	  T:000000H        SYMBOL             TIM3_Channel_TypeDef
	  T:000000H        SYMBOL             TIM3_OPMode_TypeDef
	  T:000000H        SYMBOL             TIM3_OCMode_TypeDef
	  T:000000H        SYMBOL             TIM3_Prescaler_TypeDef
	  T:000000H        SYMBOL             TIM3_ForcedAction_TypeDef
	  T:000000H        SYMBOL             GPIO_Pin_TypeDef
	  T:000000H        SYMBOL             GPIO_Mode_TypeDef
	  T:000000H        SYMBOL             BEEP_Frequency_TypeDef
	  T:000000H        SYMBOL             CFG_TypeDef
	  T:000000H        SYMBOL             CAN_TypeDef
	  T:000000H        SYMBOL             UART3_TypeDef
	  T:000000H        SYMBOL             UART2_TypeDef
	  T:000000H        SYMBOL             UART1_TypeDef
	  T:000000H        SYMBOL             SWIM_TypeDef
	  T:000000H        SYMBOL             SPI_TypeDef
	  T:000000H        SYMBOL             RST_TypeDef
	  T:000000H        SYMBOL             WWDG_TypeDef
	  T:000000H        SYMBOL             IWDG_TypeDef
	  T:000000H        SYMBOL             OPT_TypeDef
	  T:000000H        SYMBOL             FLASH_TypeDef
	  T:000000H        SYMBOL             EXTI_TypeDef
	  T:000000H        SYMBOL             ITC_TypeDef
	  T:000000H        SYMBOL             I2C_TypeDef
	  T:000000H        SYMBOL             TIM6_TypeDef
	  T:000000H        SYMBOL             TIM5_TypeDef
	  T:000000H        SYMBOL             TIM4_TypeDef
	  T:000000H        SYMBOL             TIM3_TypeDef
	  T:000000H        SYMBOL             TIM2_TypeDef
	  T:000000H        SYMBOL             TIM1_TypeDef
	  T:000000H        SYMBOL             CLK_TypeDef
	  T:000000H        SYMBOL             BEEP_TypeDef
	  T:000000H        SYMBOL             AWU_TypeDef
	  T:000000H        SYMBOL             ADC1_TypeDef
	  T:000000H        SYMBOL             GPIO_TypeDef
	  T:000000H        SYMBOL             ErrorStatus
	  T:000000H        SYMBOL             FunctionalState
	  T:000000H        SYMBOL             BitStatus
	  T:000000H        SYMBOL             ITStatus
	  T:000000H        SYMBOL             FlagStatus
	  T:000000H        SYMBOL             bool
	  T:000000H        SYMBOL             vuc8
	  T:000000H        SYMBOL             vuc16
	  T:000000H        SYMBOL             vuc32
	  T:000000H        SYMBOL             vu8
	  T:000000H        SYMBOL             vu16
	  T:000000H        SYMBOL             vu32
	  T:000000H        SYMBOL             uc8
	  T:000000H        SYMBOL             uc16
	  T:000000H        SYMBOL             uc32
	  T:000000H        SYMBOL             u8
	  T:000000H        SYMBOL             u16
	  T:000000H        SYMBOL             u32
	  T:000000H        SYMBOL             vsc8
	  T:000000H        SYMBOL             vsc16
	  T:000000H        SYMBOL             vsc32
	  T:000000H        SYMBOL             vs8
	  T:000000H        SYMBOL             vs16
	  T:000000H        SYMBOL             vs32
	  T:000000H        SYMBOL             sc8
	  T:000000H        SYMBOL             sc16
	  T:000000H        SYMBOL             sc32
	  T:000000H        SYMBOL             s8
	  T:000000H        SYMBOL             s16
	  T:000000H        SYMBOL             s32
	  N:000FFEH        SYMBOL             _ICE_DUMMY_
	----------         PROC-ST7           ?PR??CLK_DEINIT?STM8S_CLK
	  C:008D8CH        LINE#              64
	  C:008D8CH        LINE#              67
	  C:008D90H        LINE#              68
	  C:008D94H        LINE#              69
	  C:008D98H        LINE#              70
	  C:008D9CH        LINE#              71
	  C:008DA0H        LINE#              72
	  C:008DA4H        LINE#              73
	  C:008DA8H        LINE#              74
	  C:008DACH        LINE#              75
	  C:008DB0H        LINE#              76
	  C:008DBAH        LINE#              77
	  C:008DBCH        LINE#              78
	  C:008DC0H        LINE#              79
	  C:008DC4H        LINE#              80
	  C:008DC8H        LINE#              81
	  C:008DCCH        LINE#              83
	----------         ENDPROC-ST7        
	----------         PROC-ST7           ?PR??CLK_FASTHALTWAKEUPCMD?STM8S_CLK
	  S:000001H        SYMBOL             NewState
	  C:008DCDH        LINE#              94
	  C:008DCEH        LINE#              98
	  C:008DCEH        LINE#              100
	  C:008DD2H        LINE#              101
	  C:008DD2H        LINE#              103
	  C:008DE0H        LINE#              106
	  C:008DE0H        LINE#              108
	  C:008DEDH        LINE#              111
	----------         ENDPROC-ST7        
	----------         PROC-ST7           ?PR??CLK_HSECMD?STM8S_CLK
	  S:000001H        SYMBOL             NewState
	  C:008DEEH        LINE#              118
	  C:008DEFH        LINE#              122
	  C:008DEFH        LINE#              124
	  C:008DF3H        LINE#              125
	  C:008DF3H        LINE#              127
	  C:008E01H        LINE#              130
	  C:008E01H        LINE#              132
	  C:008E0EH        LINE#              135
	----------         ENDPROC-ST7        
	----------         PROC-ST7           ?PR??CLK_HSICMD?STM8S_CLK
	  S:000001H        SYMBOL             NewState
	  C:008E0FH        LINE#              142
	  C:008E10H        LINE#              146
	  C:008E10H        LINE#              148
	  C:008E14H        LINE#              149
	  C:008E14H        LINE#              151
	  C:008E22H        LINE#              154
	  C:008E22H        LINE#              156
	  C:008E2FH        LINE#              159
	----------         ENDPROC-ST7        
	----------         PROC-ST7           ?PR??CLK_LSICMD?STM8S_CLK
	  S:000001H        SYMBOL             NewState
	  C:008E30H        LINE#              166
	  C:008E31H        LINE#              170
	  C:008E31H        LINE#              172
	  C:008E35H        LINE#              173
	  C:008E35H        LINE#              175
	  C:008E43H        LINE#              178
	  C:008E43H        LINE#              180
	  C:008E50H        LINE#              183
	----------         ENDPROC-ST7        
	----------         PROC-ST7           ?PR??CLK_CCOCMD?STM8S_CLK
	  S:000001H        SYMBOL             NewState
	  C:008E51H        LINE#              191
	  C:008E52H        LINE#              195
	  C:008E52H        LINE#              197
	  C:008E56H        LINE#              198
	  C:008E56H        LINE#              200
	  C:008E64H        LINE#              203
	  C:008E64H        LINE#              205
	  C:008E71H        LINE#              208
	----------         ENDPROC-ST7        
	----------         PROC-ST7           ?PR??CLK_CLOCKSWITCHCMD?STM8S_CLK
	  S:000001H        SYMBOL             NewState
	  C:008E72H        LINE#              217
	  C:008E73H        LINE#              221
	  C:008E73H        LINE#              223
	  C:008E77H        LINE#              224
	  C:008E77H        LINE#              226
	  C:008E85H        LINE#              229
	  C:008E85H        LINE#              231
	  C:008E92H        LINE#              234
	----------         ENDPROC-ST7        
	----------         PROC-ST7           ?PR??CLK_SLOWACTIVEHALTWAKEUPCMD?STM8S_CLK
	  S:000001H        SYMBOL             NewState
	  C:008E93H        LINE#              244
	  C:008E94H        LINE#              248
	  C:008E94H        LINE#              250
	  C:008E98H        LINE#              251
	  C:008E98H        LINE#              253
	  C:008EA6H        LINE#              256
	  C:008EA6H        LINE#              258
	  C:008EB3H        LINE#              261
	----------         ENDPROC-ST7        
	----------         PROC-ST7           ?PR??CLK_PERIPHERALCLOCKCONFIG?STM8S_CLK
	  S:000001H        SYMBOL             CLK_Peripheral
	  S:000005H        SYMBOL             NewState
	  C:008EB4H        LINE#              271
	  C:008EB5H        LINE#              275
	  C:008EB5H        LINE#              276
	  C:008EB5H        LINE#              278
	  C:008EC5H        LINE#              279
	  C:008EC5H        LINE#              280
	  C:008EC9H        LINE#              281
	  C:008EC9H        LINE#              283
	  C:008EF4H        LINE#              286
	  C:008EF4H        LINE#              288
	  C:008F23H        LINE#              292
	  C:008F23H        LINE#              293
	  C:008F27H        LINE#              294
	  C:008F27H        LINE#              296
	  C:008F52H        LINE#              299
	  C:008F52H        LINE#              301
	  C:008F80H        LINE#              305
	----------         ENDPROC-ST7        
	----------         PROC-ST7           ?PR??CLK_CLOCKSWITCHCONFIG?STM8S_CLK
	  S:000007H        SYMBOL             CLK_SwitchMode
	  S:00000BH        SYMBOL             CLK_NewClock
	  S:00000DH        SYMBOL             ITState
	  S:00000FH        SYMBOL             CLK_CurrentClockState
	  S:000001H        SYMBOL             clock_master
	  S:000003H        SYMBOL             DownCounter
	  S:000005H        SYMBOL             Swif
	  C:008F81H        LINE#              318
	  C:008F84H        LINE#              322
	  C:008F89H        LINE#              323
	  C:008F8EH        LINE#              326
	  C:008F8EH        LINE#              327
	  C:008F8EH        LINE#              328
	  C:008F8EH        LINE#              329
	  C:008F8EH        LINE#              332
	  C:008F95H        LINE#              335
	  C:008F9CH        LINE#              336
	  C:008F9CH        LINE#              339
	  C:008FA8H        LINE#              342
	  C:008FACH        LINE#              343
	  C:008FACH        LINE#              344
	  C:008FBAH        LINE#              347
	  C:008FBAH        LINE#              348
	  C:008FC6H        LINE#              352
	  C:008FCBH        LINE#              354
	  C:008FD7H        LINE#              355
	  C:008FD7H        LINE#              356
	  C:008FDEH        LINE#              359
	  C:008FE2H        LINE#              360
	  C:008FE2H        LINE#              361
	  C:008FE9H        LINE#              364
	  C:008FE9H        LINE#              365
	  C:008FF0H        LINE#              370
	  C:008FF0H        LINE#              373
	  C:008FF4H        LINE#              374
	  C:008FF4H        LINE#              375
	  C:009002H        LINE#              378
	  C:009002H        LINE#              379
	  C:00900EH        LINE#              383
	  C:009013H        LINE#              387
	  C:009018H        LINE#              392
	  C:009023H        LINE#              393
	  C:009023H        LINE#              394
	  C:009031H        LINE#              396
	  C:00903CH        LINE#              397
	  C:00903CH        LINE#              398
	  C:00904AH        LINE#              400
	  C:009055H        LINE#              401
	  C:009055H        LINE#              402
	  C:009061H        LINE#              405
	  C:009065H        LINE#              407
	----------         ENDPROC-ST7        
	----------         PROC-ST7           ?PR??CLK_HSIPRESCALERCONFIG?STM8S_CLK
	  S:000001H        SYMBOL             HSIPrescaler
	  C:009066H        LINE#              415
	  C:009067H        LINE#              419
	  C:009067H        LINE#              422
	  C:009073H        LINE#              425
	  C:009080H        LINE#              427
	----------         ENDPROC-ST7        
	----------         PROC-ST7           ?PR??CLK_CCOCONFIG?STM8S_CLK
	  S:000001H        SYMBOL             CLK_CCO
	  C:009081H        LINE#              438
	  C:009082H        LINE#              442
	  C:009082H        LINE#              445
	  C:00908EH        LINE#              448
	  C:00909AH        LINE#              451
	  C:0090A7H        LINE#              453
	----------         ENDPROC-ST7        
	----------         PROC-ST7           ?PR??CLK_ITCONFIG?STM8S_CLK
	  S:000001H        SYMBOL             CLK_IT
	  S:000005H        SYMBOL             NewState
	  C:0090A8H        LINE#              463
	  C:0090A9H        LINE#              467
	  C:0090A9H        LINE#              468
	  C:0090A9H        LINE#              470
	  C:0090ADH        LINE#              471
	  C:0090ADH        LINE#              472
	  C:0090BBH        LINE#              481
	  C:0090BDH        LINE#              473
	  C:0090BDH        LINE#              475
	  C:0090C9H        LINE#              476
	  C:0090CBH        LINE#              478
	  C:0090D7H        LINE#              479
	  C:0090DBH        LINE#              485
	  C:0090DBH        LINE#              486
	  C:0090E9H        LINE#              495
	  C:0090EBH        LINE#              487
	  C:0090EBH        LINE#              489
	  C:0090F7H        LINE#              490
	  C:0090F9H        LINE#              492
	  C:009105H        LINE#              493
	  C:009108H        LINE#              499
	----------         ENDPROC-ST7        
	----------         PROC-ST7           ?PR??CLK_SYSCLKCONFIG?STM8S_CLK
	  S:000001H        SYMBOL             ClockPrescaler
	  C:009109H        LINE#              506
	  C:00910AH        LINE#              510
	  C:00910AH        LINE#              512
	  C:00911AH        LINE#              513
	  C:00911AH        LINE#              514
	  C:009126H        LINE#              515
	  C:009144H        LINE#              518
	  C:009144H        LINE#              519
	  C:009150H        LINE#              520
	  C:00916DH        LINE#              523
	----------         ENDPROC-ST7        
	----------         PROC-ST7           ?PR??CLK_SWIMCONFIG?STM8S_CLK
	  S:000001H        SYMBOL             CLK_SWIMDivider
	  C:00916EH        LINE#              530
	  C:00916FH        LINE#              534
	  C:00916FH        LINE#              536
	  C:009173H        LINE#              537
	  C:009173H        LINE#              539
	  C:009181H        LINE#              542
	  C:009181H        LINE#              544
	  C:00918EH        LINE#              547
	----------         ENDPROC-ST7        
	----------         PROC-ST7           ?PR??CLK_CANCONFIG?STM8S_CLK
	  S:000001H        SYMBOL             CLK_CANDivider
	  C:00918FH        LINE#              555
	  C:009190H        LINE#              559
	  C:009190H        LINE#              562
	  C:00919CH        LINE#              565
	  C:0091A9H        LINE#              567
	----------         ENDPROC-ST7        
	----------         PROC-ST7           ?PR??CLK_CLOCKSECURITYSYSTEMENABLE?STM8S_CLK
	  C:0091AAH        LINE#              577
	  C:0091AAH        LINE#              580
	  C:0091B6H        LINE#              581
	----------         ENDPROC-ST7        
	----------         PROC-ST7           ?PR??CLK_GETSYSCLKSOURCE?STM8S_CLK
	  C:0091B7H        LINE#              590
	  C:0091B7H        LINE#              592
	  C:0091BCH        LINE#              593
	----------         ENDPROC-ST7        
	----------         PROC-ST7           ?PR??CLK_GETCLOCKFREQ?STM8S_CLK
	  S:000001H        SYMBOL             clockfrequency
	  S:000005H        SYMBOL             clocksource
	  S:000007H        SYMBOL             tmp
	  S:000008H        SYMBOL             presc
	  C:0091BDH        LINE#              602
	  C:0091BFH        LINE#              605
	  C:0091C4H        LINE#              606
	  C:0091C9H        LINE#              607
	  C:0091D1H        LINE#              610
	  C:0091D8H        LINE#              612
	  C:0091DFH        LINE#              613
	  C:0091DFH        LINE#              614
	  C:0091F4H        LINE#              615
	  C:0091FEH        LINE#              616
	  C:009206H        LINE#              617
	  C:00921EH        LINE#              619
	  C:009225H        LINE#              620
	  C:009225H        LINE#              621
	  C:009231H        LINE#              624
	  C:009231H        LINE#              625
	  C:00923BH        LINE#              628
	  C:009241H        LINE#              630
	----------         ENDPROC-ST7        
	----------         PROC-ST7           ?PR??CLK_ADJUSTHSICALIBRATIONVALUE?STM8S_CLK
	  S:000001H        SYMBOL             CLK_HSICalibrationValue
	  C:009242H        LINE#              639
	  C:009243H        LINE#              643
	  C:009243H        LINE#              646
	  C:00926AH        LINE#              648
	----------         ENDPROC-ST7        
	----------         PROC-ST7           ?PR??CLK_SYSCLKEMERGENCYCLEAR?STM8S_CLK
	  C:00926BH        LINE#              660
	  C:00926BH        LINE#              662
	  C:009277H        LINE#              663
	----------         ENDPROC-ST7        
	----------         PROC-ST7           ?PR??CLK_GETFLAGSTATUS?STM8S_CLK
	  S:000006H        SYMBOL             CLK_FLAG
	  S:000001H        SYMBOL             statusreg
	  S:000003H        SYMBOL             tmpreg
	  S:000004H        SYMBOL             bitstatus
	  C:009278H        LINE#              672
	  C:00927BH        LINE#              675
	  C:009280H        LINE#              676
	  C:009284H        LINE#              677
	  C:009289H        LINE#              680
	  C:009289H        LINE#              683
	  C:00929BH        LINE#              686
	  C:0092A2H        LINE#              687
	  C:0092A2H        LINE#              688
	  C:0092A9H        LINE#              690
	  C:0092B0H        LINE#              691
	  C:0092B0H        LINE#              692
	  C:0092B7H        LINE#              694
	  C:0092BEH        LINE#              695
	  C:0092BEH        LINE#              696
	  C:0092C5H        LINE#              698
	  C:0092CCH        LINE#              699
	  C:0092CCH        LINE#              700
	  C:0092D3H        LINE#              703
	  C:0092D3H        LINE#              704
	  C:0092D8H        LINE#              707
	  C:0092F8H        LINE#              708
	  C:0092F8H        LINE#              709
	  C:0092FFH        LINE#              712
	  C:0092FFH        LINE#              713
	  C:009304H        LINE#              717
	  C:009308H        LINE#              719
	----------         ENDPROC-ST7        
	----------         PROC-ST7           ?PR??CLK_GETITSTATUS?STM8S_CLK
	  S:000003H        SYMBOL             CLK_IT
	  S:000001H        SYMBOL             bitstatus
	  C:009309H        LINE#              727
	  C:00930BH        LINE#              730
	  C:009310H        LINE#              733
	  C:009310H        LINE#              735
	  C:009317H        LINE#              736
	  C:009317H        LINE#              738
	  C:00933BH        LINE#              739
	  C:00933BH        LINE#              740
	  C:009342H        LINE#              743
	  C:009342H        LINE#              744
	  C:009349H        LINE#              748
	  C:009349H        LINE#              750
	  C:00936DH        LINE#              751
	  C:00936DH        LINE#              752
	  C:009374H        LINE#              755
	  C:009374H        LINE#              756
	  C:009379H        LINE#              761
	  C:00937DH        LINE#              763
	----------         ENDPROC-ST7        
	----------         PROC-ST7           ?PR??CLK_CLEARITPENDINGBIT?STM8S_CLK
	  S:000001H        SYMBOL             CLK_IT
	  C:00937EH        LINE#              771
	  C:00937FH        LINE#              775
	  C:00937FH        LINE#              777
	  C:009386H        LINE#              778
	  C:009386H        LINE#              780
	  C:009394H        LINE#              783
	  C:009394H        LINE#              785
	  C:0093A1H        LINE#              788
	----------         ENDPROC-ST7        
	----------         EndModule-ST7      
	----------         TranslatorMod-ST7  STM8S_GPIO
	  C:009525H        PUBLIC             ?GPIO_ExternalPullUpConfig
	  C:0094FCH        PUBLIC             ?GPIO_ReadInputPin
	  C:0094EDH        PUBLIC             ?GPIO_ReadOutputData
	  C:0094F3H        PUBLIC             ?GPIO_ReadInputData
	  C:0094E0H        PUBLIC             ?GPIO_WriteReverse
	  C:0094BEH        PUBLIC             ?GPIO_WriteLow
	  C:0094B1H        PUBLIC             ?GPIO_WriteHigh
	  C:0094A7H        PUBLIC             ?GPIO_Write
	  C:0093C2H        PUBLIC             ?GPIO_Init
	  C:0093A2H        PUBLIC             ?GPIO_DeInit
	  C:009525H        SYMBOL             ?GPIO_ExternalPullUpConfig
	  C:0094FCH        SYMBOL             ?GPIO_ReadInputPin
	  C:0094EDH        SYMBOL             ?GPIO_ReadOutputData
	  C:0094F3H        SYMBOL             ?GPIO_ReadInputData
	  C:0094E0H        SYMBOL             ?GPIO_WriteReverse
	  C:0094BEH        SYMBOL             ?GPIO_WriteLow
	  C:0094B1H        SYMBOL             ?GPIO_WriteHigh
	  C:0094A7H        SYMBOL             ?GPIO_Write
	  C:0093C2H        SYMBOL             ?GPIO_Init
	  C:0093A2H        SYMBOL             ?GPIO_DeInit
	  T:000000H        SYMBOL             GPIO_Pin_TypeDef
	  T:000000H        SYMBOL             GPIO_Mode_TypeDef
	  T:000000H        SYMBOL             _fctptr_t
	  T:000000H        SYMBOL             UART2_IT_TypeDef
	  T:000000H        SYMBOL             UART2_Flag_TypeDef
	  T:000000H        SYMBOL             UART2_Mode_TypeDef
	  T:000000H        SYMBOL             UART2_WordLength_TypeDef
	  T:000000H        SYMBOL             UART2_SyncMode_TypeDef
	  T:000000H        SYMBOL             UART2_LinDivUp_TypeDef
	  T:000000H        SYMBOL             UART2_LinAutosync_TypeDef
	  T:000000H        SYMBOL             UART2_LinMode_TypeDef
	  T:000000H        SYMBOL             UART2_Parity_TypeDef
	  T:000000H        SYMBOL             UART2_StopBits_TypeDef
	  T:000000H        SYMBOL             UART2_LINBreakDetectionLength_TypeDef
	  T:000000H        SYMBOL             UART2_WakeUp_TypeDef
	  T:000000H        SYMBOL             UART2_IrDAMode_TypeDef
	  T:000000H        SYMBOL             TIM3_FLAG_TypeDef
	  T:000000H        SYMBOL             TIM3_UpdateSource_TypeDef
	  T:000000H        SYMBOL             TIM3_EventSource_TypeDef
	  T:000000H        SYMBOL             TIM3_PSCReloadMode_TypeDef
	  T:000000H        SYMBOL             TIM3_IT_TypeDef
	  T:000000H        SYMBOL             TIM3_ICPSC_TypeDef
	  T:000000H        SYMBOL             TIM3_ICSelection_TypeDef
	  T:000000H        SYMBOL             TIM3_ICPolarity_TypeDef
	  T:000000H        SYMBOL             TIM3_OutputState_TypeDef
	  T:000000H        SYMBOL             TIM3_OCPolarity_TypeDef
	  T:000000H        SYMBOL             TIM3_Channel_TypeDef
	  T:000000H        SYMBOL             TIM3_OPMode_TypeDef
	  T:000000H        SYMBOL             TIM3_OCMode_TypeDef
	  T:000000H        SYMBOL             TIM3_Prescaler_TypeDef
	  T:000000H        SYMBOL             TIM3_ForcedAction_TypeDef
	  T:000000H        SYMBOL             CLK_CANDivider_TypeDef
	  T:000000H        SYMBOL             CLK_SWIMDivider_TypeDef
	  T:000000H        SYMBOL             CLK_Prescaler_TypeDef
	  T:000000H        SYMBOL             CLK_IT_TypeDef
	  T:000000H        SYMBOL             CLK_Flag_TypeDef
	  T:000000H        SYMBOL             CLK_Peripheral_TypeDef
	  T:000000H        SYMBOL             CLK_Output_TypeDef
	  T:000000H        SYMBOL             CLK_HSITrimValue_TypeDef
	  T:000000H        SYMBOL             CLK_Source_TypeDef
	  T:000000H        SYMBOL             CLK_CSSConfig_TypeDef
	  T:000000H        SYMBOL             CLK_CurrentClockState_TypeDef
	  T:000000H        SYMBOL             CLK_SwitchMode_TypeDef
	  T:000000H        SYMBOL             BEEP_Frequency_TypeDef
	  T:000000H        SYMBOL             CFG_TypeDef
	  T:000000H        SYMBOL             CAN_TypeDef
	  T:000000H        SYMBOL             UART3_TypeDef
	  T:000000H        SYMBOL             UART2_TypeDef
	  T:000000H        SYMBOL             UART1_TypeDef
	  T:000000H        SYMBOL             SWIM_TypeDef
	  T:000000H        SYMBOL             SPI_TypeDef
	  T:000000H        SYMBOL             RST_TypeDef
	  T:000000H        SYMBOL             WWDG_TypeDef
	  T:000000H        SYMBOL             IWDG_TypeDef
	  T:000000H        SYMBOL             OPT_TypeDef
	  T:000000H        SYMBOL             FLASH_TypeDef
	  T:000000H        SYMBOL             EXTI_TypeDef
	  T:000000H        SYMBOL             ITC_TypeDef
	  T:000000H        SYMBOL             I2C_TypeDef
	  T:000000H        SYMBOL             TIM6_TypeDef
	  T:000000H        SYMBOL             TIM5_TypeDef
	  T:000000H        SYMBOL             TIM4_TypeDef
	  T:000000H        SYMBOL             TIM3_TypeDef
	  T:000000H        SYMBOL             TIM2_TypeDef
	  T:000000H        SYMBOL             TIM1_TypeDef
	  T:000000H        SYMBOL             CLK_TypeDef
	  T:000000H        SYMBOL             BEEP_TypeDef
	  T:000000H        SYMBOL             AWU_TypeDef
	  T:000000H        SYMBOL             ADC1_TypeDef
	  T:000000H        SYMBOL             GPIO_TypeDef
	  T:000000H        SYMBOL             ErrorStatus
	  T:000000H        SYMBOL             FunctionalState
	  T:000000H        SYMBOL             BitStatus
	  T:000000H        SYMBOL             ITStatus
	  T:000000H        SYMBOL             FlagStatus
	  T:000000H        SYMBOL             bool
	  T:000000H        SYMBOL             vuc8
	  T:000000H        SYMBOL             vuc16
	  T:000000H        SYMBOL             vuc32
	  T:000000H        SYMBOL             vu8
	  T:000000H        SYMBOL             vu16
	  T:000000H        SYMBOL             vu32
	  T:000000H        SYMBOL             uc8
	  T:000000H        SYMBOL             uc16
	  T:000000H        SYMBOL             uc32
	  T:000000H        SYMBOL             u8
	  T:000000H        SYMBOL             u16
	  T:000000H        SYMBOL             u32
	  T:000000H        SYMBOL             vsc8
	  T:000000H        SYMBOL             vsc16
	  T:000000H        SYMBOL             vsc32
	  T:000000H        SYMBOL             vs8
	  T:000000H        SYMBOL             vs16
	  T:000000H        SYMBOL             vs32
	  T:000000H        SYMBOL             sc8
	  T:000000H        SYMBOL             sc16
	  T:000000H        SYMBOL             sc32
	  T:000000H        SYMBOL             s8
	  T:000000H        SYMBOL             s16
	  T:000000H        SYMBOL             s32
	  N:000FFEH        SYMBOL             _ICE_DUMMY_
	----------         PROC-ST7           ?PR??GPIO_DEINIT?STM8S_GPIO
	  S:000001H        SYMBOL             GPIOx
	  C:0093A2H        LINE#              45
	  C:0093A3H        LINE#              47
	  C:0093A8H        LINE#              48
	  C:0093B0H        LINE#              49
	  C:0093B8H        LINE#              50
	  C:0093C1H        LINE#              51
	----------         ENDPROC-ST7        
	----------         PROC-ST7           ?PR??GPIO_INIT?STM8S_GPIO
	  S:000001H        SYMBOL             GPIOx
	  S:000005H        SYMBOL             GPIO_Pin
	  S:000007H        SYMBOL             GPIO_Mode
	  C:0093C2H        LINE#              62
	  C:0093C3H        LINE#              70
	  C:0093C3H        LINE#              71
	  C:0093C3H        LINE#              77
	  C:0093CCH        LINE#              78
	  C:0093CCH        LINE#              79
	  C:0093D5H        LINE#              80
	  C:0093D5H        LINE#              81
	  C:0093E1H        LINE#              83
	  C:0093E1H        LINE#              84
	  C:009400H        LINE#              87
	  C:00940FH        LINE#              89
	  C:00940FH        LINE#              91
	  C:009431H        LINE#              98
	  C:00943AH        LINE#              99
	  C:00943AH        LINE#              100
	  C:009449H        LINE#              102
	  C:009449H        LINE#              103
	  C:00946BH        LINE#              110
	  C:009474H        LINE#              111
	  C:009474H        LINE#              112
	  C:009483H        LINE#              114
	  C:009483H        LINE#              115
	  C:0094A6H        LINE#              118
	----------         ENDPROC-ST7        
	----------         PROC-ST7           ?PR??GPIO_WRITE?STM8S_GPIO
	  S:000002H        SYMBOL             GPIOx
	  S:000001H        SYMBOL             PortVal
	  C:0094A7H        LINE#              129
	  C:0094A9H        LINE#              131
	  C:0094B0H        LINE#              132
	----------         ENDPROC-ST7        
	----------         PROC-ST7           ?PR??GPIO_WRITEHIGH?STM8S_GPIO
	  S:000001H        SYMBOL             GPIOx
	  S:000005H        SYMBOL             PortPins
	  C:0094B1H        LINE#              143
	  C:0094B2H        LINE#              145
	  C:0094BDH        LINE#              146
	----------         ENDPROC-ST7        
	----------         PROC-ST7           ?PR??GPIO_WRITELOW?STM8S_GPIO
	  S:000001H        SYMBOL             GPIOx
	  S:000005H        SYMBOL             PortPins
	  C:0094BEH        LINE#              157
	  C:0094BFH        LINE#              159
	  C:0094DFH        LINE#              160
	----------         ENDPROC-ST7        
	----------         PROC-ST7           ?PR??GPIO_WRITEREVERSE?STM8S_GPIO
	  S:000001H        SYMBOL             GPIOx
	  S:000005H        SYMBOL             PortPins
	  C:0094E0H        LINE#              171
	  C:0094E1H        LINE#              173
	  C:0094ECH        LINE#              174
	----------         ENDPROC-ST7        
	----------         PROC-ST7           ?PR??GPIO_READOUTPUTDATA?STM8S_GPIO
	  S:000001H        SYMBOL             GPIOx
	  C:0094EDH        LINE#              183
	  C:0094EEH        LINE#              185
	  C:0094F2H        LINE#              186
	----------         ENDPROC-ST7        
	----------         PROC-ST7           ?PR??GPIO_READINPUTDATA?STM8S_GPIO
	  S:000001H        SYMBOL             GPIOx
	  C:0094F3H        LINE#              195
	  C:0094F4H        LINE#              197
	  C:0094FBH        LINE#              198
	----------         ENDPROC-ST7        
	----------         PROC-ST7           ?PR??GPIO_READINPUTPIN?STM8S_GPIO
	  S:000001H        SYMBOL             GPIOx
	  S:000005H        SYMBOL             GPIO_Pin
	  C:0094FCH        LINE#              210
	  C:0094FDH        LINE#              212
	  C:009524H        LINE#              213
	----------         ENDPROC-ST7        
	----------         PROC-ST7           ?PR??GPIO_EXTERNALPULLUPCONFIG?STM8S_GPIO
	  S:000001H        SYMBOL             GPIOx
	  S:000005H        SYMBOL             GPIO_Pin
	  S:000007H        SYMBOL             NewState
	  C:009525H        LINE#              223
	  C:009526H        LINE#              226
	  C:009526H        LINE#              227
	  C:009526H        LINE#              229
	  C:00952AH        LINE#              230
	  C:00952AH        LINE#              231
	  C:009539H        LINE#              233
	  C:009539H        LINE#              234
	  C:00955CH        LINE#              236
	----------         ENDPROC-ST7        
	----------         EndModule-ST7      
	----------         TranslatorMod-ST7  STM8S_TIM1
	  C:00A7D8H        PUBLIC             ?TI4_Config?STM8S_TIM1?S
	  C:00A74EH        PUBLIC             ?TI3_Config?STM8S_TIM1?S
	  C:00A6C4H        PUBLIC             ?TI2_Config?STM8S_TIM1?S
	  C:00A63AH        PUBLIC             ?TI1_Config?STM8S_TIM1?S
	  C:00A62EH        PUBLIC             ?TIM1_ClearITPendingBit
	  C:00A5BFH        PUBLIC             ?TIM1_GetITStatus
	  C:00A597H        PUBLIC             ?TIM1_ClearFlag
	  C:00A521H        PUBLIC             ?TIM1_GetFlagStatus
	  C:00A502H        PUBLIC             ?TIM1_GetPrescaler
	  C:00A4E3H        PUBLIC             ?TIM1_GetCounter
	  C:00A4A9H        PUBLIC             ?TIM1_GetCapture4
	  C:00A46FH        PUBLIC             ?TIM1_GetCapture3
	  C:00A435H        PUBLIC             ?TIM1_GetCapture2
	  C:00A3FBH        PUBLIC             ?TIM1_GetCapture1
	  C:00A3D2H        PUBLIC             ?TIM1_SetIC4Prescaler
	  C:00A3A9H        PUBLIC             ?TIM1_SetIC3Prescaler
	  C:00A380H        PUBLIC             ?TIM1_SetIC2Prescaler
	  C:00A357H        PUBLIC             ?TIM1_SetIC1Prescaler
	  C:00A347H        PUBLIC             ?TIM1_SetCompare4
	  C:00A337H        PUBLIC             ?TIM1_SetCompare3
	  C:00A327H        PUBLIC             ?TIM1_SetCompare2
	  C:00A317H        PUBLIC             ?TIM1_SetCompare1
	  C:00A307H        PUBLIC             ?TIM1_SetAutoreload
	  C:00A2F7H        PUBLIC             ?TIM1_SetCounter
	  C:00A213H        PUBLIC             ?TIM1_SelectOCxM
	  C:00A1A7H        PUBLIC             ?TIM1_CCxNCmd
	  C:00A114H        PUBLIC             ?TIM1_CCxCmd
	  C:00A0F3H        PUBLIC             ?TIM1_OC4PolarityConfig
	  C:00A0D2H        PUBLIC             ?TIM1_OC3NPolarityConfig
	  C:00A0B1H        PUBLIC             ?TIM1_OC3PolarityConfig
	  C:00A090H        PUBLIC             ?TIM1_OC2NPolarityConfig
	  C:00A06FH        PUBLIC             ?TIM1_OC2PolarityConfig
	  C:00A04EH        PUBLIC             ?TIM1_OC1NPolarityConfig
	  C:00A02DH        PUBLIC             ?TIM1_OC1PolarityConfig
	  C:00A025H        PUBLIC             ?TIM1_GenerateEvent
	  C:00A004H        PUBLIC             ?TIM1_OC4FastConfig
	  C:009FE3H        PUBLIC             ?TIM1_OC3FastConfig
	  C:009FC2H        PUBLIC             ?TIM1_OC2FastConfig
	  C:009FA1H        PUBLIC             ?TIM1_OC1FastConfig
	  C:009F80H        PUBLIC             ?TIM1_OC4PreloadConfig
	  C:009F5FH        PUBLIC             ?TIM1_OC3PreloadConfig
	  C:009F3EH        PUBLIC             ?TIM1_OC2PreloadConfig
	  C:009F1DH        PUBLIC             ?TIM1_OC1PreloadConfig
	  C:009EFCH        PUBLIC             ?TIM1_CCPreloadControl
	  C:009EDBH        PUBLIC             ?TIM1_SelectCOM
	  C:009EBAH        PUBLIC             ?TIM1_ARRPreloadConfig
	  C:009E91H        PUBLIC             ?TIM1_ForcedOC4Config
	  C:009E68H        PUBLIC             ?TIM1_ForcedOC3Config
	  C:009E3FH        PUBLIC             ?TIM1_ForcedOC2Config
	  C:009E16H        PUBLIC             ?TIM1_ForcedOC1Config
	  C:009DEDH        PUBLIC             ?TIM1_CounterModeConfig
	  C:009DD8H        PUBLIC             ?TIM1_PrescalerConfig
	  C:009D2BH        PUBLIC             ?TIM1_EncoderInterfaceConfig
	  C:009D0AH        PUBLIC             ?TIM1_SelectMasterSlaveMode
	  C:009CE1H        PUBLIC             ?TIM1_SelectSlaveMode
	  C:009CB8H        PUBLIC             ?TIM1_SelectOutputTrigger
	  C:009C97H        PUBLIC             ?TIM1_SelectOnePulseMode
	  C:009C76H        PUBLIC             ?TIM1_SelectHallSensor
	  C:009C55H        PUBLIC             ?TIM1_UpdateRequestConfig
	  C:009C34H        PUBLIC             ?TIM1_UpdateDisableConfig
	  C:009C0BH        PUBLIC             ?TIM1_SelectInputTrigger
	  C:009BD8H        PUBLIC             ?TIM1_TIxExternalClockConfig
	  C:009B9DH        PUBLIC             ?TIM1_ETRConfig
	  C:009B81H        PUBLIC             ?TIM1_ETRClockMode2Config
	  C:009B4DH        PUBLIC             ?TIM1_ETRClockMode1Config
	  C:009B40H        PUBLIC             ?TIM1_InternalClockConfig
	  C:009B1BH        PUBLIC             ?TIM1_ITConfig
	  C:009AFAH        PUBLIC             ?TIM1_CtrlPWMOutputs
	  C:009AD9H        PUBLIC             ?TIM1_Cmd
	  C:009A60H        PUBLIC             ?TIM1_PWMIConfig
	  C:009A01H        PUBLIC             ?TIM1_ICInit
	  C:0099A8H        PUBLIC             ?TIM1_BDTRConfig
	  C:009914H        PUBLIC             ?TIM1_OC4Init
	  C:009822H        PUBLIC             ?TIM1_OC3Init
	  C:009730H        PUBLIC             ?TIM1_OC2Init
	  C:00963EH        PUBLIC             ?TIM1_OC1Init
	  C:0095F6H        PUBLIC             ?TIM1_TimeBaseInit
	  C:00955DH        PUBLIC             ?TIM1_DeInit
	  C:00A7D8H        SYMBOL             ?TI4_Config?STM8S_TIM1?S
	  C:00A74EH        SYMBOL             ?TI3_Config?STM8S_TIM1?S
	  C:00A6C4H        SYMBOL             ?TI2_Config?STM8S_TIM1?S
	  C:00A63AH        SYMBOL             ?TI1_Config?STM8S_TIM1?S
	  C:00A62EH        SYMBOL             ?TIM1_ClearITPendingBit
	  C:00A5BFH        SYMBOL             ?TIM1_GetITStatus
	  C:00A597H        SYMBOL             ?TIM1_ClearFlag
	  C:00A521H        SYMBOL             ?TIM1_GetFlagStatus
	  C:00A502H        SYMBOL             ?TIM1_GetPrescaler
	  C:00A4E3H        SYMBOL             ?TIM1_GetCounter
	  C:00A4A9H        SYMBOL             ?TIM1_GetCapture4
	  C:00A46FH        SYMBOL             ?TIM1_GetCapture3
	  C:00A435H        SYMBOL             ?TIM1_GetCapture2
	  C:00A3FBH        SYMBOL             ?TIM1_GetCapture1
	  C:00A3D2H        SYMBOL             ?TIM1_SetIC4Prescaler
	  C:00A3A9H        SYMBOL             ?TIM1_SetIC3Prescaler
	  C:00A380H        SYMBOL             ?TIM1_SetIC2Prescaler
	  C:00A357H        SYMBOL             ?TIM1_SetIC1Prescaler
	  C:00A347H        SYMBOL             ?TIM1_SetCompare4
	  C:00A337H        SYMBOL             ?TIM1_SetCompare3
	  C:00A327H        SYMBOL             ?TIM1_SetCompare2
	  C:00A317H        SYMBOL             ?TIM1_SetCompare1
	  C:00A307H        SYMBOL             ?TIM1_SetAutoreload
	  C:00A2F7H        SYMBOL             ?TIM1_SetCounter
	  C:00A213H        SYMBOL             ?TIM1_SelectOCxM
	  C:00A1A7H        SYMBOL             ?TIM1_CCxNCmd
	  C:00A114H        SYMBOL             ?TIM1_CCxCmd
	  C:00A0F3H        SYMBOL             ?TIM1_OC4PolarityConfig
	  C:00A0D2H        SYMBOL             ?TIM1_OC3NPolarityConfig
	  C:00A0B1H        SYMBOL             ?TIM1_OC3PolarityConfig
	  C:00A090H        SYMBOL             ?TIM1_OC2NPolarityConfig
	  C:00A06FH        SYMBOL             ?TIM1_OC2PolarityConfig
	  C:00A04EH        SYMBOL             ?TIM1_OC1NPolarityConfig
	  C:00A02DH        SYMBOL             ?TIM1_OC1PolarityConfig
	  C:00A025H        SYMBOL             ?TIM1_GenerateEvent
	  C:00A004H        SYMBOL             ?TIM1_OC4FastConfig
	  C:009FE3H        SYMBOL             ?TIM1_OC3FastConfig
	  C:009FC2H        SYMBOL             ?TIM1_OC2FastConfig
	  C:009FA1H        SYMBOL             ?TIM1_OC1FastConfig
	  C:009F80H        SYMBOL             ?TIM1_OC4PreloadConfig
	  C:009F5FH        SYMBOL             ?TIM1_OC3PreloadConfig
	  C:009F3EH        SYMBOL             ?TIM1_OC2PreloadConfig
	  C:009F1DH        SYMBOL             ?TIM1_OC1PreloadConfig
	  C:009EFCH        SYMBOL             ?TIM1_CCPreloadControl
	  C:009EDBH        SYMBOL             ?TIM1_SelectCOM
	  C:009EBAH        SYMBOL             ?TIM1_ARRPreloadConfig
	  C:009E91H        SYMBOL             ?TIM1_ForcedOC4Config
	  C:009E68H        SYMBOL             ?TIM1_ForcedOC3Config
	  C:009E3FH        SYMBOL             ?TIM1_ForcedOC2Config
	  C:009E16H        SYMBOL             ?TIM1_ForcedOC1Config
	  C:009DEDH        SYMBOL             ?TIM1_CounterModeConfig
	  C:009DD8H        SYMBOL             ?TIM1_PrescalerConfig
	  C:009D2BH        SYMBOL             ?TIM1_EncoderInterfaceConfig
	  C:009D0AH        SYMBOL             ?TIM1_SelectMasterSlaveMode
	  C:009CE1H        SYMBOL             ?TIM1_SelectSlaveMode
	  C:009CB8H        SYMBOL             ?TIM1_SelectOutputTrigger
	  C:009C97H        SYMBOL             ?TIM1_SelectOnePulseMode
	  C:009C76H        SYMBOL             ?TIM1_SelectHallSensor
	  C:009C55H        SYMBOL             ?TIM1_UpdateRequestConfig
	  C:009C34H        SYMBOL             ?TIM1_UpdateDisableConfig
	  C:009C0BH        SYMBOL             ?TIM1_SelectInputTrigger
	  C:009BD8H        SYMBOL             ?TIM1_TIxExternalClockConfig
	  C:009B9DH        SYMBOL             ?TIM1_ETRConfig
	  C:009B81H        SYMBOL             ?TIM1_ETRClockMode2Config
	  C:009B4DH        SYMBOL             ?TIM1_ETRClockMode1Config
	  C:009B40H        SYMBOL             ?TIM1_InternalClockConfig
	  C:009B1BH        SYMBOL             ?TIM1_ITConfig
	  C:009AFAH        SYMBOL             ?TIM1_CtrlPWMOutputs
	  C:009AD9H        SYMBOL             ?TIM1_Cmd
	  C:009A60H        SYMBOL             ?TIM1_PWMIConfig
	  C:009A01H        SYMBOL             ?TIM1_ICInit
	  C:0099A8H        SYMBOL             ?TIM1_BDTRConfig
	  C:009914H        SYMBOL             ?TIM1_OC4Init
	  C:009822H        SYMBOL             ?TIM1_OC3Init
	  C:009730H        SYMBOL             ?TIM1_OC2Init
	  C:00963EH        SYMBOL             ?TIM1_OC1Init
	  C:0095F6H        SYMBOL             ?TIM1_TimeBaseInit
	  C:00955DH        SYMBOL             ?TIM1_DeInit
	  T:000000H        SYMBOL             TIM1_ForcedAction_TypeDef
	  T:000000H        SYMBOL             TIM1_FLAG_TypeDef
	  T:000000H        SYMBOL             TIM1_SlaveMode_TypeDef
	  T:000000H        SYMBOL             TIM1_TRGOSource_TypeDef
	  T:000000H        SYMBOL             TIM1_UpdateSource_TypeDef
	  T:000000H        SYMBOL             TIM1_EventSource_TypeDef
	  T:000000H        SYMBOL             TIM1_EncoderMode_TypeDef
	  T:000000H        SYMBOL             TIM1_PSCReloadMode_TypeDef
	  T:000000H        SYMBOL             TIM1_ExtTRGPolarity_TypeDef
	  T:000000H        SYMBOL             TIM1_TIxExternalCLK1Source_TypeDef
	  T:000000H        SYMBOL             TIM1_TS_TypeDef
	  T:000000H        SYMBOL             TIM1_ExtTRGPSC_TypeDef
	  T:000000H        SYMBOL             TIM1_IT_TypeDef
	  T:000000H        SYMBOL             TIM1_ICPSC_TypeDef
	  T:000000H        SYMBOL             TIM1_ICSelection_TypeDef
	  T:000000H        SYMBOL             TIM1_ICPolarity_TypeDef
	  T:000000H        SYMBOL             TIM1_OCNIdleState_TypeDef
	  T:000000H        SYMBOL             TIM1_OCIdleState_TypeDef
	  T:000000H        SYMBOL             TIM1_OSSIState_TypeDef
	  T:000000H        SYMBOL             TIM1_LockLevel_TypeDef
	  T:000000H        SYMBOL             TIM1_AutomaticOutput_TypeDef
	  T:000000H        SYMBOL             TIM1_BreakPolarity_TypeDef
	  T:000000H        SYMBOL             TIM1_BreakState_TypeDef
	  T:000000H        SYMBOL             TIM1_OutputNState_TypeDef
	  T:000000H        SYMBOL             TIM1_OutputState_TypeDef
	  T:000000H        SYMBOL             TIM1_OCNPolarity_TypeDef
	  T:000000H        SYMBOL             TIM1_OCPolarity_TypeDef
	  T:000000H        SYMBOL             TIM1_CounterMode_TypeDef
	  T:000000H        SYMBOL             TIM1_Channel_TypeDef
	  T:000000H        SYMBOL             TIM1_OPMode_TypeDef
	  T:000000H        SYMBOL             TIM1_OCMode_TypeDef
	  T:000000H        SYMBOL             _fctptr_t
	  T:000000H        SYMBOL             UART2_IT_TypeDef
	  T:000000H        SYMBOL             UART2_Flag_TypeDef
	  T:000000H        SYMBOL             UART2_Mode_TypeDef
	  T:000000H        SYMBOL             UART2_WordLength_TypeDef
	  T:000000H        SYMBOL             UART2_SyncMode_TypeDef
	  T:000000H        SYMBOL             UART2_LinDivUp_TypeDef
	  T:000000H        SYMBOL             UART2_LinAutosync_TypeDef
	  T:000000H        SYMBOL             UART2_LinMode_TypeDef
	  T:000000H        SYMBOL             UART2_Parity_TypeDef
	  T:000000H        SYMBOL             UART2_StopBits_TypeDef
	  T:000000H        SYMBOL             UART2_LINBreakDetectionLength_TypeDef
	  T:000000H        SYMBOL             UART2_WakeUp_TypeDef
	  T:000000H        SYMBOL             UART2_IrDAMode_TypeDef
	  T:000000H        SYMBOL             TIM3_FLAG_TypeDef
	  T:000000H        SYMBOL             TIM3_UpdateSource_TypeDef
	  T:000000H        SYMBOL             TIM3_EventSource_TypeDef
	  T:000000H        SYMBOL             TIM3_PSCReloadMode_TypeDef
	  T:000000H        SYMBOL             TIM3_IT_TypeDef
	  T:000000H        SYMBOL             TIM3_ICPSC_TypeDef
	  T:000000H        SYMBOL             TIM3_ICSelection_TypeDef
	  T:000000H        SYMBOL             TIM3_ICPolarity_TypeDef
	  T:000000H        SYMBOL             TIM3_OutputState_TypeDef
	  T:000000H        SYMBOL             TIM3_OCPolarity_TypeDef
	  T:000000H        SYMBOL             TIM3_Channel_TypeDef
	  T:000000H        SYMBOL             TIM3_OPMode_TypeDef
	  T:000000H        SYMBOL             TIM3_OCMode_TypeDef
	  T:000000H        SYMBOL             TIM3_Prescaler_TypeDef
	  T:000000H        SYMBOL             TIM3_ForcedAction_TypeDef
	  T:000000H        SYMBOL             GPIO_Pin_TypeDef
	  T:000000H        SYMBOL             GPIO_Mode_TypeDef
	  T:000000H        SYMBOL             CLK_CANDivider_TypeDef
	  T:000000H        SYMBOL             CLK_SWIMDivider_TypeDef
	  T:000000H        SYMBOL             CLK_Prescaler_TypeDef
	  T:000000H        SYMBOL             CLK_IT_TypeDef
	  T:000000H        SYMBOL             CLK_Flag_TypeDef
	  T:000000H        SYMBOL             CLK_Peripheral_TypeDef
	  T:000000H        SYMBOL             CLK_Output_TypeDef
	  T:000000H        SYMBOL             CLK_HSITrimValue_TypeDef
	  T:000000H        SYMBOL             CLK_Source_TypeDef
	  T:000000H        SYMBOL             CLK_CSSConfig_TypeDef
	  T:000000H        SYMBOL             CLK_CurrentClockState_TypeDef
	  T:000000H        SYMBOL             CLK_SwitchMode_TypeDef
	  T:000000H        SYMBOL             BEEP_Frequency_TypeDef
	  T:000000H        SYMBOL             CFG_TypeDef
	  T:000000H        SYMBOL             CAN_TypeDef
	  T:000000H        SYMBOL             UART3_TypeDef
	  T:000000H        SYMBOL             UART2_TypeDef
	  T:000000H        SYMBOL             UART1_TypeDef
	  T:000000H        SYMBOL             SWIM_TypeDef
	  T:000000H        SYMBOL             SPI_TypeDef
	  T:000000H        SYMBOL             RST_TypeDef
	  T:000000H        SYMBOL             WWDG_TypeDef
	  T:000000H        SYMBOL             IWDG_TypeDef
	  T:000000H        SYMBOL             OPT_TypeDef
	  T:000000H        SYMBOL             FLASH_TypeDef
	  T:000000H        SYMBOL             EXTI_TypeDef
	  T:000000H        SYMBOL             ITC_TypeDef
	  T:000000H        SYMBOL             I2C_TypeDef
	  T:000000H        SYMBOL             TIM6_TypeDef
	  T:000000H        SYMBOL             TIM5_TypeDef
	  T:000000H        SYMBOL             TIM4_TypeDef
	  T:000000H        SYMBOL             TIM3_TypeDef
	  T:000000H        SYMBOL             TIM2_TypeDef
	  T:000000H        SYMBOL             TIM1_TypeDef
	  T:000000H        SYMBOL             CLK_TypeDef
	  T:000000H        SYMBOL             BEEP_TypeDef
	  T:000000H        SYMBOL             AWU_TypeDef
	  T:000000H        SYMBOL             ADC1_TypeDef
	  T:000000H        SYMBOL             GPIO_TypeDef
	  T:000000H        SYMBOL             ErrorStatus
	  T:000000H        SYMBOL             FunctionalState
	  T:000000H        SYMBOL             BitStatus
	  T:000000H        SYMBOL             ITStatus
	  T:000000H        SYMBOL             FlagStatus
	  T:000000H        SYMBOL             bool
	  T:000000H        SYMBOL             vuc8
	  T:000000H        SYMBOL             vuc16
	  T:000000H        SYMBOL             vuc32
	  T:000000H        SYMBOL             vu8
	  T:000000H        SYMBOL             vu16
	  T:000000H        SYMBOL             vu32
	  T:000000H        SYMBOL             uc8
	  T:000000H        SYMBOL             uc16
	  T:000000H        SYMBOL             uc32
	  T:000000H        SYMBOL             u8
	  T:000000H        SYMBOL             u16
	  T:000000H        SYMBOL             u32
	  T:000000H        SYMBOL             vsc8
	  T:000000H        SYMBOL             vsc16
	  T:000000H        SYMBOL             vsc32
	  T:000000H        SYMBOL             vs8
	  T:000000H        SYMBOL             vs16
	  T:000000H        SYMBOL             vs32
	  T:000000H        SYMBOL             sc8
	  T:000000H        SYMBOL             sc16
	  T:000000H        SYMBOL             sc32
	  T:000000H        SYMBOL             s8
	  T:000000H        SYMBOL             s16
	  T:000000H        SYMBOL             s32
	  N:000FFEH        SYMBOL             _ICE_DUMMY_
	----------         PROC-ST7           ?PR??TIM1_DEINIT?STM8S_TIM1
	  C:00955DH        LINE#              50
	  C:00955DH        LINE#              52
	  C:009561H        LINE#              53
	  C:009565H        LINE#              54
	  C:009569H        LINE#              55
	  C:00956DH        LINE#              56
	  C:009571H        LINE#              57
	  C:009575H        LINE#              59
	  C:009579H        LINE#              60
	  C:00957DH        LINE#              62
	  C:009581H        LINE#              63
	  C:009585H        LINE#              64
	  C:009589H        LINE#              65
	  C:00958DH        LINE#              67
	  C:009591H        LINE#              68
	  C:009595H        LINE#              69
	  C:009599H        LINE#              70
	  C:00959DH        LINE#              71
	  C:0095A1H        LINE#              72
	  C:0095A5H        LINE#              73
	  C:0095A9H        LINE#              74
	  C:0095ADH        LINE#              75
	  C:0095B1H        LINE#              76
	  C:0095B5H        LINE#              77
	  C:0095B9H        LINE#              78
	  C:0095BDH        LINE#              79
	  C:0095C1H        LINE#              80
	  C:0095C5H        LINE#              81
	  C:0095C9H        LINE#              82
	  C:0095CDH        LINE#              83
	  C:0095D1H        LINE#              84
	  C:0095D5H        LINE#              85
	  C:0095D9H        LINE#              86
	  C:0095DDH        LINE#              87
	  C:0095E1H        LINE#              88
	  C:0095E5H        LINE#              89
	  C:0095E9H        LINE#              90
	  C:0095EDH        LINE#              91
	  C:0095F1H        LINE#              92
	  C:0095F5H        LINE#              93
	----------         ENDPROC-ST7        
	----------         PROC-ST7           ?PR??TIM1_TIMEBASEINIT?STM8S_TIM1
	  S:000001H        SYMBOL             TIM1_Prescaler
	  S:000005H        SYMBOL             TIM1_CounterMode
	  S:000007H        SYMBOL             TIM1_Period
	  S:000009H        SYMBOL             TIM1_RepetitionCounter
	  C:0095F6H        LINE#              103
	  C:0095F7H        LINE#              110
	  C:0095F7H        LINE#              113
	  C:0095FFH        LINE#              114
	  C:009604H        LINE#              117
	  C:00960CH        LINE#              118
	  C:009611H        LINE#              121
	  C:009637H        LINE#              124
	  C:00963DH        LINE#              126
	----------         ENDPROC-ST7        
	----------         PROC-ST7           ?PR??TIM1_OC1INIT?STM8S_TIM1
	  S:000001H        SYMBOL             TIM1_OCMode
	  S:000005H        SYMBOL             TIM1_OutputState
	  S:000007H        SYMBOL             TIM1_OutputNState
	  S:000009H        SYMBOL             TIM1_Pulse
	  S:00000BH        SYMBOL             TIM1_OCPolarity
	  S:00000DH        SYMBOL             TIM1_OCNPolarity
	  S:00000FH        SYMBOL             TIM1_OCIdleState
	  S:000011H        SYMBOL             TIM1_OCNIdleState
	  C:00963EH        LINE#              140
	  C:00963FH        LINE#              150
	  C:00963FH        LINE#              151
	  C:00963FH        LINE#              152
	  C:00963FH        LINE#              153
	  C:00963FH        LINE#              154
	  C:00963FH        LINE#              155
	  C:00963FH        LINE#              156
	  C:00963FH        LINE#              159
	  C:00964BH        LINE#              161
	  C:0096B9H        LINE#              164
	  C:0096DFH        LINE#              167
	  C:0096EBH        LINE#              169
	  C:009721H        LINE#              172
	  C:009729H        LINE#              173
	  C:00972FH        LINE#              174
	----------         ENDPROC-ST7        
	----------         PROC-ST7           ?PR??TIM1_OC2INIT?STM8S_TIM1
	  S:000001H        SYMBOL             TIM1_OCMode
	  S:000005H        SYMBOL             TIM1_OutputState
	  S:000007H        SYMBOL             TIM1_OutputNState
	  S:000009H        SYMBOL             TIM1_Pulse
	  S:00000BH        SYMBOL             TIM1_OCPolarity
	  S:00000DH        SYMBOL             TIM1_OCNPolarity
	  S:00000FH        SYMBOL             TIM1_OCIdleState
	  S:000011H        SYMBOL             TIM1_OCNIdleState
	  C:009730H        LINE#              188
	  C:009731H        LINE#              200
	  C:009731H        LINE#              201
	  C:009731H        LINE#              202
	  C:009731H        LINE#              203
	  C:009731H        LINE#              204
	  C:009731H        LINE#              205
	  C:009731H        LINE#              206
	  C:009731H        LINE#              209
	  C:00973DH        LINE#              211
	  C:0097ABH        LINE#              215
	  C:0097D1H        LINE#              218
	  C:0097DDH        LINE#              220
	  C:009813H        LINE#              223
	  C:00981BH        LINE#              224
	  C:009821H        LINE#              226
	----------         ENDPROC-ST7        
	----------         PROC-ST7           ?PR??TIM1_OC3INIT?STM8S_TIM1
	  S:000001H        SYMBOL             TIM1_OCMode
	  S:000005H        SYMBOL             TIM1_OutputState
	  S:000007H        SYMBOL             TIM1_OutputNState
	  S:000009H        SYMBOL             TIM1_Pulse
	  S:00000BH        SYMBOL             TIM1_OCPolarity
	  S:00000DH        SYMBOL             TIM1_OCNPolarity
	  S:00000FH        SYMBOL             TIM1_OCIdleState
	  S:000011H        SYMBOL             TIM1_OCNIdleState
	  C:009822H        LINE#              240
	  C:009823H        LINE#              251
	  C:009823H        LINE#              252
	  C:009823H        LINE#              253
	  C:009823H        LINE#              254
	  C:009823H        LINE#              255
	  C:009823H        LINE#              256
	  C:009823H        LINE#              257
	  C:009823H        LINE#              260
	  C:00982FH        LINE#              262
	  C:00989DH        LINE#              267
	  C:0098C3H        LINE#              270
	  C:0098CFH        LINE#              272
	  C:009905H        LINE#              275
	  C:00990DH        LINE#              276
	  C:009913H        LINE#              278
	----------         ENDPROC-ST7        
	----------         PROC-ST7           ?PR??TIM1_OC4INIT?STM8S_TIM1
	  S:000001H        SYMBOL             TIM1_OCMode
	  S:000005H        SYMBOL             TIM1_OutputState
	  S:000007H        SYMBOL             TIM1_Pulse
	  S:000009H        SYMBOL             TIM1_OCPolarity
	  S:00000BH        SYMBOL             TIM1_OCIdleState
	  C:009914H        LINE#              289
	  C:009915H        LINE#              297
	  C:009915H        LINE#              298
	  C:009915H        LINE#              299
	  C:009915H        LINE#              300
	  C:009915H        LINE#              305
	  C:009921H        LINE#              307
	  C:009957H        LINE#              310
	  C:00997BH        LINE#              313
	  C:00997FH        LINE#              314
	  C:00997FH        LINE#              315
	  C:00998DH        LINE#              318
	  C:00998DH        LINE#              319
	  C:009999H        LINE#              323
	  C:0099A1H        LINE#              324
	  C:0099A7H        LINE#              326
	----------         ENDPROC-ST7        
	----------         PROC-ST7           ?PR??TIM1_BDTRCONFIG?STM8S_TIM1
	  S:000001H        SYMBOL             TIM1_OSSIState
	  S:000005H        SYMBOL             TIM1_LockLevel
	  S:000007H        SYMBOL             TIM1_DeadTime
	  S:000008H        SYMBOL             TIM1_Break
	  S:00000AH        SYMBOL             TIM1_BreakPolarity
	  S:00000CH        SYMBOL             TIM1_AutomaticOutput
	  C:0099A8H        LINE#              339
	  C:0099A9H        LINE#              349
	  C:0099A9H        LINE#              350
	  C:0099A9H        LINE#              351
	  C:0099A9H        LINE#              352
	  C:0099A9H        LINE#              353
	  C:0099A9H        LINE#              356
	  C:0099AEH        LINE#              364
	  C:009A00H        LINE#              366
	----------         ENDPROC-ST7        
	----------         PROC-ST7           ?PR??TIM1_ICINIT?STM8S_TIM1
	  S:000001H        SYMBOL             TIM1_Channel
	  S:000005H        SYMBOL             TIM1_ICPolarity
	  S:000007H        SYMBOL             TIM1_ICSelection
	  S:000009H        SYMBOL             TIM1_ICPrescaler
	  S:00000BH        SYMBOL             TIM1_ICFilter
	  C:009A01H        LINE#              378
	  C:009A02H        LINE#              386
	  C:009A02H        LINE#              387
	  C:009A02H        LINE#              388
	  C:009A02H        LINE#              389
	  C:009A02H        LINE#              390
	  C:009A02H        LINE#              392
	  C:009A06H        LINE#              393
	  C:009A06H        LINE#              397
	  C:009A12H        LINE#              399
	  C:009A19H        LINE#              401
	  C:009A20H        LINE#              402
	  C:009A20H        LINE#              406
	  C:009A2CH        LINE#              408
	  C:009A33H        LINE#              410
	  C:009A3AH        LINE#              411
	  C:009A3AH        LINE#              415
	  C:009A46H        LINE#              417
	  C:009A4DH        LINE#              420
	  C:009A4DH        LINE#              424
	  C:009A59H        LINE#              426
	  C:009A5FH        LINE#              429
	----------         ENDPROC-ST7        
	----------         PROC-ST7           ?PR??TIM1_PWMICONFIG?STM8S_TIM1
	  S:000003H        SYMBOL             TIM1_Channel
	  S:000007H        SYMBOL             TIM1_ICPolarity
	  S:000009H        SYMBOL             TIM1_ICSelection
	  S:00000BH        SYMBOL             TIM1_ICPrescaler
	  S:00000DH        SYMBOL             TIM1_ICFilter
	  S:000001H        SYMBOL             icpolarity
	  S:000002H        SYMBOL             icselection
	  C:009A60H        LINE#              440
	  C:009A62H        LINE#              446
	  C:009A66H        LINE#              447
	  C:009A6AH        LINE#              450
	  C:009A6AH        LINE#              451
	  C:009A6AH        LINE#              452
	  C:009A6AH        LINE#              453
	  C:009A6AH        LINE#              456
	  C:009A71H        LINE#              457
	  C:009A71H        LINE#              458
	  C:009A77H        LINE#              461
	  C:009A77H        LINE#              462
	  C:009A7BH        LINE#              466
	  C:009A82H        LINE#              467
	  C:009A82H        LINE#              468
	  C:009A88H        LINE#              471
	  C:009A88H        LINE#              472
	  C:009A8CH        LINE#              475
	  C:009A90H        LINE#              476
	  C:009A90H        LINE#              479
	  C:009A9CH        LINE#              482
	  C:009AA1H        LINE#              485
	  C:009AADH        LINE#              488
	  C:009AB4H        LINE#              491
	  C:009AB4H        LINE#              494
	  C:009AC0H        LINE#              497
	  C:009AC5H        LINE#              500
	  C:009AD1H        LINE#              503
	  C:009AD8H        LINE#              505
	----------         ENDPROC-ST7        
	----------         PROC-ST7           ?PR??TIM1_CMD?STM8S_TIM1
	  S:000001H        SYMBOL             NewState
	  C:009AD9H        LINE#              514
	  C:009ADAH        LINE#              517
	  C:009ADAH        LINE#              520
	  C:009ADEH        LINE#              521
	  C:009ADEH        LINE#              522
	  C:009AECH        LINE#              525
	  C:009AECH        LINE#              526
	  C:009AF9H        LINE#              528
	----------         ENDPROC-ST7        
	----------         PROC-ST7           ?PR??TIM1_CTRLPWMOUTPUTS?STM8S_TIM1
	  S:000001H        SYMBOL             NewState
	  C:009AFAH        LINE#              537
	  C:009AFBH        LINE#              540
	  C:009AFBH        LINE#              544
	  C:009AFFH        LINE#              545
	  C:009AFFH        LINE#              546
	  C:009B0DH        LINE#              549
	  C:009B0DH        LINE#              550
	  C:009B1AH        LINE#              552
	----------         ENDPROC-ST7        
	----------         PROC-ST7           ?PR??TIM1_ITCONFIG?STM8S_TIM1
	  S:000001H        SYMBOL             TIM1_IT
	  S:000005H        SYMBOL             NewState
	  C:009B1BH        LINE#              572
	  C:009B1CH        LINE#              575
	  C:009B1CH        LINE#              576
	  C:009B1CH        LINE#              578
	  C:009B20H        LINE#              579
	  C:009B20H        LINE#              581
	  C:009B2EH        LINE#              584
	  C:009B2EH        LINE#              586
	  C:009B3FH        LINE#              588
	----------         ENDPROC-ST7        
	----------         PROC-ST7           ?PR??TIM1_INTERNALCLOCKCONFIG?STM8S_TIM1
	  C:009B40H        LINE#              597
	  C:009B40H        LINE#              600
	  C:009B4CH        LINE#              601
	----------         ENDPROC-ST7        
	----------         PROC-ST7           ?PR??TIM1_ETRCLOCKMODE1CONFIG?STM8S_TIM1
	  S:000001H        SYMBOL             TIM1_ExtTRGPrescaler
	  S:000005H        SYMBOL             TIM1_ExtTRGPolarity
	  S:000007H        SYMBOL             ExtTRGFilter
	  C:009B4DH        LINE#              620
	  C:009B4EH        LINE#              625
	  C:009B4EH        LINE#              626
	  C:009B4EH        LINE#              629
	  C:009B5BH        LINE#              632
	  C:009B80H        LINE#              633
	----------         ENDPROC-ST7        
	----------         PROC-ST7           ?PR??TIM1_ETRCLOCKMODE2CONFIG?STM8S_TIM1
	  S:000001H        SYMBOL             TIM1_ExtTRGPrescaler
	  S:000005H        SYMBOL             TIM1_ExtTRGPolarity
	  S:000007H        SYMBOL             ExtTRGFilter
	  C:009B81H        LINE#              652
	  C:009B82H        LINE#              657
	  C:009B82H        LINE#              658
	  C:009B82H        LINE#              661
	  C:009B8FH        LINE#              664
	  C:009B9CH        LINE#              665
	----------         ENDPROC-ST7        
	----------         PROC-ST7           ?PR??TIM1_ETRCONFIG?STM8S_TIM1
	  S:000001H        SYMBOL             TIM1_ExtTRGPrescaler
	  S:000005H        SYMBOL             TIM1_ExtTRGPolarity
	  S:000007H        SYMBOL             ExtTRGFilter
	  C:009B9DH        LINE#              684
	  C:009B9EH        LINE#              689
	  C:009B9EH        LINE#              693
	  C:009BD7H        LINE#              694
	----------         ENDPROC-ST7        
	----------         PROC-ST7           ?PR??TIM1_TIXEXTERNALCLOCKCONFIG?STM8S_TIM1
	  S:000001H        SYMBOL             TIM1_TIxExternalCLKSource
	  S:000005H        SYMBOL             TIM1_ICPolarity
	  S:000007H        SYMBOL             ICFilter
	  C:009BD8H        LINE#              716
	  C:009BD9H        LINE#              721
	  C:009BD9H        LINE#              722
	  C:009BD9H        LINE#              723
	  C:009BD9H        LINE#              726
	  C:009BE0H        LINE#              727
	  C:009BE0H        LINE#              728
	  C:009BEDH        LINE#              731
	  C:009BEDH        LINE#              732
	  C:009BF8H        LINE#              736
	  C:009BFDH        LINE#              739
	  C:009C0AH        LINE#              740
	----------         ENDPROC-ST7        
	----------         PROC-ST7           ?PR??TIM1_SELECTINPUTTRIGGER?STM8S_TIM1
	  S:000001H        SYMBOL             TIM1_InputTriggerSource
	  C:009C0BH        LINE#              752
	  C:009C0CH        LINE#              755
	  C:009C0CH        LINE#              758
	  C:009C33H        LINE#              759
	----------         ENDPROC-ST7        
	----------         PROC-ST7           ?PR??TIM1_UPDATEDISABLECONFIG?STM8S_TIM1
	  S:000001H        SYMBOL             NewState
	  C:009C34H        LINE#              769
	  C:009C35H        LINE#              772
	  C:009C35H        LINE#              775
	  C:009C39H        LINE#              776
	  C:009C39H        LINE#              777
	  C:009C47H        LINE#              780
	  C:009C47H        LINE#              781
	  C:009C54H        LINE#              783
	----------         ENDPROC-ST7        
	----------         PROC-ST7           ?PR??TIM1_UPDATEREQUESTCONFIG?STM8S_TIM1
	  S:000001H        SYMBOL             TIM1_UpdateSource
	  C:009C55H        LINE#              793
	  C:009C56H        LINE#              796
	  C:009C56H        LINE#              799
	  C:009C5AH        LINE#              800
	  C:009C5AH        LINE#              801
	  C:009C68H        LINE#              804
	  C:009C68H        LINE#              805
	  C:009C75H        LINE#              807
	----------         ENDPROC-ST7        
	----------         PROC-ST7           ?PR??TIM1_SELECTHALLSENSOR?STM8S_TIM1
	  S:000001H        SYMBOL             NewState
	  C:009C76H        LINE#              816
	  C:009C77H        LINE#              819
	  C:009C77H        LINE#              822
	  C:009C7BH        LINE#              823
	  C:009C7BH        LINE#              824
	  C:009C89H        LINE#              827
	  C:009C89H        LINE#              828
	  C:009C96H        LINE#              830
	----------         ENDPROC-ST7        
	----------         PROC-ST7           ?PR??TIM1_SELECTONEPULSEMODE?STM8S_TIM1
	  S:000001H        SYMBOL             TIM1_OPMode
	  C:009C97H        LINE#              841
	  C:009C98H        LINE#              844
	  C:009C98H        LINE#              847
	  C:009C9CH        LINE#              848
	  C:009C9CH        LINE#              849
	  C:009CAAH        LINE#              852
	  C:009CAAH        LINE#              853
	  C:009CB7H        LINE#              856
	----------         ENDPROC-ST7        
	----------         PROC-ST7           ?PR??TIM1_SELECTOUTPUTTRIGGER?STM8S_TIM1
	  S:000001H        SYMBOL             TIM1_TRGOSource
	  C:009CB8H        LINE#              872
	  C:009CB9H        LINE#              876
	  C:009CB9H        LINE#              878
	  C:009CE0H        LINE#              879
	----------         ENDPROC-ST7        
	----------         PROC-ST7           ?PR??TIM1_SELECTSLAVEMODE?STM8S_TIM1
	  S:000001H        SYMBOL             TIM1_SlaveMode
	  C:009CE1H        LINE#              891
	  C:009CE2H        LINE#              895
	  C:009CE2H        LINE#              898
	  C:009D09H        LINE#              900
	----------         ENDPROC-ST7        
	----------         PROC-ST7           ?PR??TIM1_SELECTMASTERSLAVEMODE?STM8S_TIM1
	  S:000001H        SYMBOL             NewState
	  C:009D0AH        LINE#              908
	  C:009D0BH        LINE#              911
	  C:009D0BH        LINE#              914
	  C:009D0FH        LINE#              915
	  C:009D0FH        LINE#              916
	  C:009D1DH        LINE#              919
	  C:009D1DH        LINE#              920
	  C:009D2AH        LINE#              922
	----------         ENDPROC-ST7        
	----------         PROC-ST7           ?PR??TIM1_ENCODERINTERFACECONFIG?STM8S_TIM1
	  S:000001H        SYMBOL             TIM1_EncoderMode
	  S:000005H        SYMBOL             TIM1_IC1Polarity
	  S:000007H        SYMBOL             TIM1_IC2Polarity
	  C:009D2BH        LINE#              944
	  C:009D2CH        LINE#              951
	  C:009D2CH        LINE#              952
	  C:009D2CH        LINE#              953
	  C:009D2CH        LINE#              956
	  C:009D30H        LINE#              957
	  C:009D30H        LINE#              958
	  C:009D3EH        LINE#              961
	  C:009D3EH        LINE#              962
	  C:009D4AH        LINE#              965
	  C:009D4EH        LINE#              966
	  C:009D4EH        LINE#              967
	  C:009D5CH        LINE#              970
	  C:009D5CH        LINE#              971
	  C:009D68H        LINE#              974
	  C:009D8EH        LINE#              977
	  C:009DB2H        LINE#              978
	  C:009DD7H        LINE#              980
	----------         ENDPROC-ST7        
	----------         PROC-ST7           ?PR??TIM1_PRESCALERCONFIG?STM8S_TIM1
	  S:000001H        SYMBOL             Prescaler
	  S:000005H        SYMBOL             TIM1_PSCReloadMode
	  C:009DD8H        LINE#              993
	  C:009DD9H        LINE#              997
	  C:009DD9H        LINE#              1000
	  C:009DE1H        LINE#              1001
	  C:009DE6H        LINE#              1004
	  C:009DECH        LINE#              1006
	----------         ENDPROC-ST7        
	----------         PROC-ST7           ?PR??TIM1_COUNTERMODECONFIG?STM8S_TIM1
	  S:000001H        SYMBOL             TIM1_CounterMode
	  C:009DEDH        LINE#              1019
	  C:009DEEH        LINE#              1022
	  C:009DEEH        LINE#              1026
	  C:009E15H        LINE#              1027
	----------         ENDPROC-ST7        
	----------         PROC-ST7           ?PR??TIM1_FORCEDOC1CONFIG?STM8S_TIM1
	  S:000001H        SYMBOL             TIM1_ForcedAction
	  C:009E16H        LINE#              1038
	  C:009E17H        LINE#              1041
	  C:009E17H        LINE#              1044
	  C:009E3EH        LINE#              1045
	----------         ENDPROC-ST7        
	----------         PROC-ST7           ?PR??TIM1_FORCEDOC2CONFIG?STM8S_TIM1
	  S:000001H        SYMBOL             TIM1_ForcedAction
	  C:009E3FH        LINE#              1056
	  C:009E40H        LINE#              1059
	  C:009E40H        LINE#              1062
	  C:009E67H        LINE#              1063
	----------         ENDPROC-ST7        
	----------         PROC-ST7           ?PR??TIM1_FORCEDOC3CONFIG?STM8S_TIM1
	  S:000001H        SYMBOL             TIM1_ForcedAction
	  C:009E68H        LINE#              1075
	  C:009E69H        LINE#              1078
	  C:009E69H        LINE#              1081
	  C:009E90H        LINE#              1082
	----------         ENDPROC-ST7        
	----------         PROC-ST7           ?PR??TIM1_FORCEDOC4CONFIG?STM8S_TIM1
	  S:000001H        SYMBOL             TIM1_ForcedAction
	  C:009E91H        LINE#              1094
	  C:009E92H        LINE#              1097
	  C:009E92H        LINE#              1100
	  C:009EB9H        LINE#              1101
	----------         ENDPROC-ST7        
	----------         PROC-ST7           ?PR??TIM1_ARRPRELOADCONFIG?STM8S_TIM1
	  S:000001H        SYMBOL             NewState
	  C:009EBAH        LINE#              1110
	  C:009EBBH        LINE#              1113
	  C:009EBBH        LINE#              1116
	  C:009EBFH        LINE#              1117
	  C:009EBFH        LINE#              1118
	  C:009ECDH        LINE#              1121
	  C:009ECDH        LINE#              1122
	  C:009EDAH        LINE#              1124
	----------         ENDPROC-ST7        
	----------         PROC-ST7           ?PR??TIM1_SELECTCOM?STM8S_TIM1
	  S:000001H        SYMBOL             NewState
	  C:009EDBH        LINE#              1133
	  C:009EDCH        LINE#              1136
	  C:009EDCH        LINE#              1139
	  C:009EE0H        LINE#              1140
	  C:009EE0H        LINE#              1141
	  C:009EEEH        LINE#              1144
	  C:009EEEH        LINE#              1145
	  C:009EFBH        LINE#              1147
	----------         ENDPROC-ST7        
	----------         PROC-ST7           ?PR??TIM1_CCPRELOADCONTROL?STM8S_TIM1
	  S:000001H        SYMBOL             NewState
	  C:009EFCH        LINE#              1155
	  C:009EFDH        LINE#              1158
	  C:009EFDH        LINE#              1161
	  C:009F01H        LINE#              1162
	  C:009F01H        LINE#              1163
	  C:009F0FH        LINE#              1166
	  C:009F0FH        LINE#              1167
	  C:009F1CH        LINE#              1169
	----------         ENDPROC-ST7        
	----------         PROC-ST7           ?PR??TIM1_OC1PRELOADCONFIG?STM8S_TIM1
	  S:000001H        SYMBOL             NewState
	  C:009F1DH        LINE#              1178
	  C:009F1EH        LINE#              1181
	  C:009F1EH        LINE#              1184
	  C:009F22H        LINE#              1185
	  C:009F22H        LINE#              1186
	  C:009F30H        LINE#              1189
	  C:009F30H        LINE#              1190
	  C:009F3DH        LINE#              1192
	----------         ENDPROC-ST7        
	----------         PROC-ST7           ?PR??TIM1_OC2PRELOADCONFIG?STM8S_TIM1
	  S:000001H        SYMBOL             NewState
	  C:009F3EH        LINE#              1201
	  C:009F3FH        LINE#              1204
	  C:009F3FH        LINE#              1207
	  C:009F43H        LINE#              1208
	  C:009F43H        LINE#              1209
	  C:009F51H        LINE#              1212
	  C:009F51H        LINE#              1213
	  C:009F5EH        LINE#              1215
	----------         ENDPROC-ST7        
	----------         PROC-ST7           ?PR??TIM1_OC3PRELOADCONFIG?STM8S_TIM1
	  S:000001H        SYMBOL             NewState
	  C:009F5FH        LINE#              1224
	  C:009F60H        LINE#              1227
	  C:009F60H        LINE#              1230
	  C:009F64H        LINE#              1231
	  C:009F64H        LINE#              1232
	  C:009F72H        LINE#              1235
	  C:009F72H        LINE#              1236
	  C:009F7FH        LINE#              1238
	----------         ENDPROC-ST7        
	----------         PROC-ST7           ?PR??TIM1_OC4PRELOADCONFIG?STM8S_TIM1
	  S:000001H        SYMBOL             NewState
	  C:009F80H        LINE#              1248
	  C:009F81H        LINE#              1251
	  C:009F81H        LINE#              1254
	  C:009F85H        LINE#              1255
	  C:009F85H        LINE#              1256
	  C:009F93H        LINE#              1259
	  C:009F93H        LINE#              1260
	  C:009FA0H        LINE#              1262
	----------         ENDPROC-ST7        
	----------         PROC-ST7           ?PR??TIM1_OC1FASTCONFIG?STM8S_TIM1
	  S:000001H        SYMBOL             NewState
	  C:009FA1H        LINE#              1270
	  C:009FA2H        LINE#              1273
	  C:009FA2H        LINE#              1276
	  C:009FA6H        LINE#              1277
	  C:009FA6H        LINE#              1278
	  C:009FB4H        LINE#              1281
	  C:009FB4H        LINE#              1282
	  C:009FC1H        LINE#              1284
	----------         ENDPROC-ST7        
	----------         PROC-ST7           ?PR??TIM1_OC2FASTCONFIG?STM8S_TIM1
	  S:000001H        SYMBOL             NewState
	  C:009FC2H        LINE#              1294
	  C:009FC3H        LINE#              1297
	  C:009FC3H        LINE#              1300
	  C:009FC7H        LINE#              1301
	  C:009FC7H        LINE#              1302
	  C:009FD5H        LINE#              1305
	  C:009FD5H        LINE#              1306
	  C:009FE2H        LINE#              1308
	----------         ENDPROC-ST7        
	----------         PROC-ST7           ?PR??TIM1_OC3FASTCONFIG?STM8S_TIM1
	  S:000001H        SYMBOL             NewState
	  C:009FE3H        LINE#              1317
	  C:009FE4H        LINE#              1320
	  C:009FE4H        LINE#              1323
	  C:009FE8H        LINE#              1324
	  C:009FE8H        LINE#              1325
	  C:009FF6H        LINE#              1328
	  C:009FF6H        LINE#              1329
	  C:00A003H        LINE#              1331
	----------         ENDPROC-ST7        
	----------         PROC-ST7           ?PR??TIM1_OC4FASTCONFIG?STM8S_TIM1
	  S:000001H        SYMBOL             NewState
	  C:00A004H        LINE#              1340
	  C:00A005H        LINE#              1343
	  C:00A005H        LINE#              1346
	  C:00A009H        LINE#              1347
	  C:00A009H        LINE#              1348
	  C:00A017H        LINE#              1351
	  C:00A017H        LINE#              1352
	  C:00A024H        LINE#              1354
	----------         ENDPROC-ST7        
	----------         PROC-ST7           ?PR??TIM1_GENERATEEVENT?STM8S_TIM1
	  S:000001H        SYMBOL             TIM1_EventSource
	  C:00A025H        LINE#              1371
	  C:00A026H        LINE#              1374
	  C:00A026H        LINE#              1377
	  C:00A02CH        LINE#              1378
	----------         ENDPROC-ST7        
	----------         PROC-ST7           ?PR??TIM1_OC1POLARITYCONFIG?STM8S_TIM1
	  S:000001H        SYMBOL             TIM1_OCPolarity
	  C:00A02DH        LINE#              1389
	  C:00A02EH        LINE#              1392
	  C:00A02EH        LINE#              1395
	  C:00A032H        LINE#              1396
	  C:00A032H        LINE#              1397
	  C:00A040H        LINE#              1400
	  C:00A040H        LINE#              1401
	  C:00A04DH        LINE#              1403
	----------         ENDPROC-ST7        
	----------         PROC-ST7           ?PR??TIM1_OC1NPOLARITYCONFIG?STM8S_TIM1
	  S:000001H        SYMBOL             TIM1_OCNPolarity
	  C:00A04EH        LINE#              1414
	  C:00A04FH        LINE#              1417
	  C:00A04FH        LINE#              1420
	  C:00A053H        LINE#              1421
	  C:00A053H        LINE#              1422
	  C:00A061H        LINE#              1425
	  C:00A061H        LINE#              1426
	  C:00A06EH        LINE#              1428
	----------         ENDPROC-ST7        
	----------         PROC-ST7           ?PR??TIM1_OC2POLARITYCONFIG?STM8S_TIM1
	  S:000001H        SYMBOL             TIM1_OCPolarity
	  C:00A06FH        LINE#              1439
	  C:00A070H        LINE#              1442
	  C:00A070H        LINE#              1445
	  C:00A074H        LINE#              1446
	  C:00A074H        LINE#              1447
	  C:00A082H        LINE#              1450
	  C:00A082H        LINE#              1451
	  C:00A08FH        LINE#              1453
	----------         ENDPROC-ST7        
	----------         PROC-ST7           ?PR??TIM1_OC2NPOLARITYCONFIG?STM8S_TIM1
	  S:000001H        SYMBOL             TIM1_OCNPolarity
	  C:00A090H        LINE#              1463
	  C:00A091H        LINE#              1466
	  C:00A091H        LINE#              1469
	  C:00A095H        LINE#              1470
	  C:00A095H        LINE#              1471
	  C:00A0A3H        LINE#              1474
	  C:00A0A3H        LINE#              1475
	  C:00A0B0H        LINE#              1477
	----------         ENDPROC-ST7        
	----------         PROC-ST7           ?PR??TIM1_OC3POLARITYCONFIG?STM8S_TIM1
	  S:000001H        SYMBOL             TIM1_OCPolarity
	  C:00A0B1H        LINE#              1488
	  C:00A0B2H        LINE#              1491
	  C:00A0B2H        LINE#              1494
	  C:00A0B6H        LINE#              1495
	  C:00A0B6H        LINE#              1496
	  C:00A0C4H        LINE#              1499
	  C:00A0C4H        LINE#              1500
	  C:00A0D1H        LINE#              1502
	----------         ENDPROC-ST7        
	----------         PROC-ST7           ?PR??TIM1_OC3NPOLARITYCONFIG?STM8S_TIM1
	  S:000001H        SYMBOL             TIM1_OCNPolarity
	  C:00A0D2H        LINE#              1513
	  C:00A0D3H        LINE#              1516
	  C:00A0D3H        LINE#              1519
	  C:00A0D7H        LINE#              1520
	  C:00A0D7H        LINE#              1521
	  C:00A0E5H        LINE#              1524
	  C:00A0E5H        LINE#              1525
	  C:00A0F2H        LINE#              1527
	----------         ENDPROC-ST7        
	----------         PROC-ST7           ?PR??TIM1_OC4POLARITYCONFIG?STM8S_TIM1
	  S:000001H        SYMBOL             TIM1_OCPolarity
	  C:00A0F3H        LINE#              1537
	  C:00A0F4H        LINE#              1540
	  C:00A0F4H        LINE#              1543
	  C:00A0F8H        LINE#              1544
	  C:00A0F8H        LINE#              1545
	  C:00A106H        LINE#              1548
	  C:00A106H        LINE#              1549
	  C:00A113H        LINE#              1551
	----------         ENDPROC-ST7        
	----------         PROC-ST7           ?PR??TIM1_CCXCMD?STM8S_TIM1
	  S:000001H        SYMBOL             TIM1_Channel
	  S:000005H        SYMBOL             NewState
	  C:00A114H        LINE#              1566
	  C:00A115H        LINE#              1569
	  C:00A115H        LINE#              1570
	  C:00A115H        LINE#              1572
	  C:00A119H        LINE#              1573
	  C:00A119H        LINE#              1575
	  C:00A11DH        LINE#              1576
	  C:00A11DH        LINE#              1577
	  C:00A12BH        LINE#              1580
	  C:00A12BH        LINE#              1581
	  C:00A139H        LINE#              1585
	  C:00A140H        LINE#              1586
	  C:00A140H        LINE#              1588
	  C:00A144H        LINE#              1589
	  C:00A144H        LINE#              1590
	  C:00A152H        LINE#              1593
	  C:00A152H        LINE#              1594
	  C:00A160H        LINE#              1597
	  C:00A167H        LINE#              1598
	  C:00A167H        LINE#              1600
	  C:00A16BH        LINE#              1601
	  C:00A16BH        LINE#              1602
	  C:00A179H        LINE#              1605
	  C:00A179H        LINE#              1606
	  C:00A187H        LINE#              1610
	  C:00A187H        LINE#              1612
	  C:00A18BH        LINE#              1613
	  C:00A18BH        LINE#              1614
	  C:00A199H        LINE#              1617
	  C:00A199H        LINE#              1618
	  C:00A1A6H        LINE#              1621
	----------         ENDPROC-ST7        
	----------         PROC-ST7           ?PR??TIM1_CCXNCMD?STM8S_TIM1
	  S:000001H        SYMBOL             TIM1_Channel
	  S:000005H        SYMBOL             NewState
	  C:00A1A7H        LINE#              1634
	  C:00A1A8H        LINE#              1637
	  C:00A1A8H        LINE#              1638
	  C:00A1A8H        LINE#              1640
	  C:00A1ACH        LINE#              1641
	  C:00A1ACH        LINE#              1643
	  C:00A1B0H        LINE#              1644
	  C:00A1B0H        LINE#              1645
	  C:00A1BEH        LINE#              1648
	  C:00A1BEH        LINE#              1649
	  C:00A1CCH        LINE#              1652
	  C:00A1D3H        LINE#              1653
	  C:00A1D3H        LINE#              1655
	  C:00A1D7H        LINE#              1656
	  C:00A1D7H        LINE#              1657
	  C:00A1E5H        LINE#              1660
	  C:00A1E5H        LINE#              1661
	  C:00A1F3H        LINE#              1665
	  C:00A1F3H        LINE#              1667
	  C:00A1F7H        LINE#              1668
	  C:00A1F7H        LINE#              1669
	  C:00A205H        LINE#              1672
	  C:00A205H        LINE#              1673
	  C:00A212H        LINE#              1676
	----------         ENDPROC-ST7        
	----------         PROC-ST7           ?PR??TIM1_SELECTOCXM?STM8S_TIM1
	  S:000001H        SYMBOL             TIM1_Channel
	  S:000005H        SYMBOL             TIM1_OCMode
	  C:00A213H        LINE#              1700
	  C:00A214H        LINE#              1703
	  C:00A214H        LINE#              1704
	  C:00A214H        LINE#              1706
	  C:00A218H        LINE#              1707
	  C:00A218H        LINE#              1709
	  C:00A224H        LINE#              1712
	  C:00A24DH        LINE#              1714
	  C:00A254H        LINE#              1715
	  C:00A254H        LINE#              1717
	  C:00A260H        LINE#              1720
	  C:00A288H        LINE#              1722
	  C:00A28FH        LINE#              1723
	  C:00A28FH        LINE#              1725
	  C:00A29BH        LINE#              1728
	  C:00A2C3H        LINE#              1731
	  C:00A2C3H        LINE#              1733
	  C:00A2CFH        LINE#              1736
	  C:00A2F6H        LINE#              1738
	----------         ENDPROC-ST7        
	----------         PROC-ST7           ?PR??TIM1_SETCOUNTER?STM8S_TIM1
	  S:000001H        SYMBOL             Counter
	  C:00A2F7H        LINE#              1747
	  C:00A2F8H        LINE#              1750
	  C:00A300H        LINE#              1751
	  C:00A306H        LINE#              1753
	----------         ENDPROC-ST7        
	----------         PROC-ST7           ?PR??TIM1_SETAUTORELOAD?STM8S_TIM1
	  S:000001H        SYMBOL             Autoreload
	  C:00A307H        LINE#              1762
	  C:00A308H        LINE#              1766
	  C:00A310H        LINE#              1767
	  C:00A316H        LINE#              1769
	----------         ENDPROC-ST7        
	----------         PROC-ST7           ?PR??TIM1_SETCOMPARE1?STM8S_TIM1
	  S:000001H        SYMBOL             Compare1
	  C:00A317H        LINE#              1778
	  C:00A318H        LINE#              1781
	  C:00A320H        LINE#              1782
	  C:00A326H        LINE#              1784
	----------         ENDPROC-ST7        
	----------         PROC-ST7           ?PR??TIM1_SETCOMPARE2?STM8S_TIM1
	  S:000001H        SYMBOL             Compare2
	  C:00A327H        LINE#              1793
	  C:00A328H        LINE#              1796
	  C:00A330H        LINE#              1797
	  C:00A336H        LINE#              1799
	----------         ENDPROC-ST7        
	----------         PROC-ST7           ?PR??TIM1_SETCOMPARE3?STM8S_TIM1
	  S:000001H        SYMBOL             Compare3
	  C:00A337H        LINE#              1808
	  C:00A338H        LINE#              1811
	  C:00A340H        LINE#              1812
	  C:00A346H        LINE#              1814
	----------         ENDPROC-ST7        
	----------         PROC-ST7           ?PR??TIM1_SETCOMPARE4?STM8S_TIM1
	  S:000001H        SYMBOL             Compare4
	  C:00A347H        LINE#              1823
	  C:00A348H        LINE#              1826
	  C:00A350H        LINE#              1827
	  C:00A356H        LINE#              1828
	----------         ENDPROC-ST7        
	----------         PROC-ST7           ?PR??TIM1_SETIC1PRESCALER?STM8S_TIM1
	  S:000001H        SYMBOL             TIM1_IC1Prescaler
	  C:00A357H        LINE#              1841
	  C:00A358H        LINE#              1844
	  C:00A358H        LINE#              1847
	  C:00A37FH        LINE#              1849
	----------         ENDPROC-ST7        
	----------         PROC-ST7           ?PR??TIM1_SETIC2PRESCALER?STM8S_TIM1
	  S:000001H        SYMBOL             TIM1_IC2Prescaler
	  C:00A380H        LINE#              1861
	  C:00A381H        LINE#              1865
	  C:00A381H        LINE#              1868
	  C:00A3A8H        LINE#              1869
	----------         ENDPROC-ST7        
	----------         PROC-ST7           ?PR??TIM1_SETIC3PRESCALER?STM8S_TIM1
	  S:000001H        SYMBOL             TIM1_IC3Prescaler
	  C:00A3A9H        LINE#              1882
	  C:00A3AAH        LINE#              1886
	  C:00A3AAH        LINE#              1889
	  C:00A3D1H        LINE#              1890
	----------         ENDPROC-ST7        
	----------         PROC-ST7           ?PR??TIM1_SETIC4PRESCALER?STM8S_TIM1
	  S:000001H        SYMBOL             TIM1_IC4Prescaler
	  C:00A3D2H        LINE#              1903
	  C:00A3D3H        LINE#              1907
	  C:00A3D3H        LINE#              1910
	  C:00A3FAH        LINE#              1911
	----------         ENDPROC-ST7        
	----------         PROC-ST7           ?PR??TIM1_GETCAPTURE1?STM8S_TIM1
	  S:000001H        SYMBOL             tmpccr1
	  S:000003H        SYMBOL             tmpccr1l
	  S:000004H        SYMBOL             tmpccr1h
	  C:00A3FBH        LINE#              1920
	  C:00A3FDH        LINE#              1924
	  C:00A402H        LINE#              1925
	  C:00A40AH        LINE#              1927
	  C:00A40FH        LINE#              1928
	  C:00A414H        LINE#              1930
	  C:00A41AH        LINE#              1931
	  C:00A430H        LINE#              1933
	  C:00A434H        LINE#              1934
	----------         ENDPROC-ST7        
	----------         PROC-ST7           ?PR??TIM1_GETCAPTURE2?STM8S_TIM1
	  S:000001H        SYMBOL             tmpccr2
	  S:000003H        SYMBOL             tmpccr2l
	  S:000004H        SYMBOL             tmpccr2h
	  C:00A435H        LINE#              1942
	  C:00A437H        LINE#              1946
	  C:00A43CH        LINE#              1947
	  C:00A444H        LINE#              1949
	  C:00A449H        LINE#              1950
	  C:00A44EH        LINE#              1952
	  C:00A454H        LINE#              1953
	  C:00A46AH        LINE#              1955
	  C:00A46EH        LINE#              1956
	----------         ENDPROC-ST7        
	----------         PROC-ST7           ?PR??TIM1_GETCAPTURE3?STM8S_TIM1
	  S:000001H        SYMBOL             tmpccr3
	  S:000003H        SYMBOL             tmpccr3l
	  S:000004H        SYMBOL             tmpccr3h
	  C:00A46FH        LINE#              1964
	  C:00A471H        LINE#              1967
	  C:00A476H        LINE#              1968
	  C:00A47EH        LINE#              1970
	  C:00A483H        LINE#              1971
	  C:00A488H        LINE#              1973
	  C:00A48EH        LINE#              1974
	  C:00A4A4H        LINE#              1976
	  C:00A4A8H        LINE#              1977
	----------         ENDPROC-ST7        
	----------         PROC-ST7           ?PR??TIM1_GETCAPTURE4?STM8S_TIM1
	  S:000001H        SYMBOL             tmpccr4
	  S:000003H        SYMBOL             tmpccr4l
	  S:000004H        SYMBOL             tmpccr4h
	  C:00A4A9H        LINE#              1985
	  C:00A4ABH        LINE#              1988
	  C:00A4B0H        LINE#              1989
	  C:00A4B8H        LINE#              1991
	  C:00A4BDH        LINE#              1992
	  C:00A4C2H        LINE#              1994
	  C:00A4C8H        LINE#              1995
	  C:00A4DEH        LINE#              1997
	  C:00A4E2H        LINE#              1998
	----------         ENDPROC-ST7        
	----------         PROC-ST7           ?PR??TIM1_GETCOUNTER?STM8S_TIM1
	  C:00A4E3H        LINE#              2007
	  C:00A4E3H        LINE#              2010
	  C:00A501H        LINE#              2011
	----------         ENDPROC-ST7        
	----------         PROC-ST7           ?PR??TIM1_GETPRESCALER?STM8S_TIM1
	  C:00A502H        LINE#              2020
	  C:00A502H        LINE#              2023
	  C:00A520H        LINE#              2024
	----------         ENDPROC-ST7        
	----------         PROC-ST7           ?PR??TIM1_GETFLAGSTATUS?STM8S_TIM1
	  S:000005H        SYMBOL             TIM1_FLAG
	  S:000001H        SYMBOL             bitstatus
	  S:000003H        SYMBOL             tim1_flag_l
	  S:000004H        SYMBOL             tim1_flag_h
	  C:00A521H        LINE#              2045
	  C:00A524H        LINE#              2047
	  C:00A529H        LINE#              2051
	  C:00A529H        LINE#              2053
	  C:00A52DH        LINE#              2054
	  C:00A534H        LINE#              2056
	  C:00A586H        LINE#              2057
	  C:00A586H        LINE#              2058
	  C:00A58DH        LINE#              2061
	  C:00A58DH        LINE#              2062
	  C:00A592H        LINE#              2064
	  C:00A596H        LINE#              2065
	----------         ENDPROC-ST7        
	----------         PROC-ST7           ?PR??TIM1_CLEARFLAG?STM8S_TIM1
	  S:000001H        SYMBOL             TIM1_FLAG
	  C:00A597H        LINE#              2086
	  C:00A598H        LINE#              2089
	  C:00A598H        LINE#              2092
	  C:00A5A1H        LINE#              2093
	  C:00A5BEH        LINE#              2094
	----------         ENDPROC-ST7        
	----------         PROC-ST7           ?PR??TIM1_GETITSTATUS?STM8S_TIM1
	  S:000005H        SYMBOL             TIM1_IT
	  S:000001H        SYMBOL             bitstatus
	  S:000003H        SYMBOL             TIM1_itStatus
	  S:000004H        SYMBOL             TIM1_itEnable
	  C:00A5BFH        LINE#              2112
	  C:00A5C2H        LINE#              2114
	  C:00A5C7H        LINE#              2115
	  C:00A5CFH        LINE#              2118
	  C:00A5CFH        LINE#              2120
	  C:00A5F0H        LINE#              2122
	  C:00A611H        LINE#              2124
	  C:00A61DH        LINE#              2125
	  C:00A61DH        LINE#              2126
	  C:00A624H        LINE#              2129
	  C:00A624H        LINE#              2130
	  C:00A629H        LINE#              2132
	  C:00A62DH        LINE#              2133
	----------         ENDPROC-ST7        
	----------         PROC-ST7           ?PR??TIM1_CLEARITPENDINGBIT?STM8S_TIM1
	  S:000001H        SYMBOL             TIM1_IT
	  C:00A62EH        LINE#              2150
	  C:00A62FH        LINE#              2153
	  C:00A62FH        LINE#              2156
	  C:00A639H        LINE#              2157
	----------         ENDPROC-ST7        
	----------         PROC-ST7           ?PR??TI1_CONFIG?STM8S_TIM1?S?STM8S_TIM1
	  S:000001H        SYMBOL             TIM1_ICPolarity
	  S:000004H        SYMBOL             TIM1_ICSelection
	  S:000005H        SYMBOL             TIM1_ICFilter
	  C:00A63AH        LINE#              2176
	  C:00A63BH        LINE#              2182
	  C:00A647H        LINE#              2185
	  C:00A698H        LINE#              2190
	  C:00A69CH        LINE#              2191
	  C:00A69CH        LINE#              2192
	  C:00A6AAH        LINE#              2195
	  C:00A6AAH        LINE#              2196
	  C:00A6B6H        LINE#              2200
	  C:00A6C3H        LINE#              2201
	----------         ENDPROC-ST7        
	----------         PROC-ST7           ?PR??TI2_CONFIG?STM8S_TIM1?S?STM8S_TIM1
	  S:000001H        SYMBOL             TIM1_ICPolarity
	  S:000004H        SYMBOL             TIM1_ICSelection
	  S:000005H        SYMBOL             TIM1_ICFilter
	  C:00A6C4H        LINE#              2220
	  C:00A6C5H        LINE#              2225
	  C:00A6D1H        LINE#              2228
	  C:00A722H        LINE#              2230
	  C:00A726H        LINE#              2231
	  C:00A726H        LINE#              2232
	  C:00A734H        LINE#              2235
	  C:00A734H        LINE#              2236
	  C:00A740H        LINE#              2239
	  C:00A74DH        LINE#              2240
	----------         ENDPROC-ST7        
	----------         PROC-ST7           ?PR??TI3_CONFIG?STM8S_TIM1?S?STM8S_TIM1
	  S:000001H        SYMBOL             TIM1_ICPolarity
	  S:000004H        SYMBOL             TIM1_ICSelection
	  S:000005H        SYMBOL             TIM1_ICFilter
	  C:00A74EH        LINE#              2258
	  C:00A74FH        LINE#              2263
	  C:00A75BH        LINE#              2266
	  C:00A7ACH        LINE#              2269
	  C:00A7B0H        LINE#              2270
	  C:00A7B0H        LINE#              2271
	  C:00A7BEH        LINE#              2274
	  C:00A7BEH        LINE#              2275
	  C:00A7CAH        LINE#              2278
	  C:00A7D7H        LINE#              2279
	----------         ENDPROC-ST7        
	----------         PROC-ST7           ?PR??TI4_CONFIG?STM8S_TIM1?S?STM8S_TIM1
	  S:000001H        SYMBOL             TIM1_ICPolarity
	  S:000004H        SYMBOL             TIM1_ICSelection
	  S:000005H        SYMBOL             TIM1_ICFilter
	  C:00A7D8H        LINE#              2298
	  C:00A7D9H        LINE#              2304
	  C:00A7E5H        LINE#              2307
	  C:00A836H        LINE#              2312
	  C:00A83AH        LINE#              2313
	  C:00A83AH        LINE#              2314
	  C:00A848H        LINE#              2317
	  C:00A848H        LINE#              2318
	  C:00A854H        LINE#              2322
	  C:00A861H        LINE#              2323
	----------         ENDPROC-ST7        
	----------         EndModule-ST7      
	----------         TranslatorMod-ST7  STM8S_TIM3
	  C:00AF65H        PUBLIC             ?TI2_Config?STM8S_TIM3?S
	  C:00AEDBH        PUBLIC             ?TI1_Config?STM8S_TIM3?S
	  C:00AED1H        PUBLIC             ?TIM3_ClearITPendingBit
	  C:00AE7AH        PUBLIC             ?TIM3_GetITStatus
	  C:00AE5FH        PUBLIC             ?TIM3_ClearFlag
	  C:00ADE6H        PUBLIC             ?TIM3_GetFlagStatus
	  C:00ADE0H        PUBLIC             ?TIM3_GetPrescaler
	  C:00ADC1H        PUBLIC             ?TIM3_GetCounter
	  C:00AD87H        PUBLIC             ?TIM3_GetCapture2
	  C:00AD4DH        PUBLIC             ?TIM3_GetCapture1
	  C:00AD24H        PUBLIC             ?TIM3_SetIC2Prescaler
	  C:00ACFBH        PUBLIC             ?TIM3_SetIC1Prescaler
	  C:00ACEBH        PUBLIC             ?TIM3_SetCompare2
	  C:00ACDBH        PUBLIC             ?TIM3_SetCompare1
	  C:00ACCBH        PUBLIC             ?TIM3_SetAutoreload
	  C:00ACBBH        PUBLIC             ?TIM3_SetCounter
	  C:00AC4EH        PUBLIC             ?TIM3_SelectOCxM
	  C:00AC09H        PUBLIC             ?TIM3_CCxCmd
	  C:00ABE8H        PUBLIC             ?TIM3_OC2PolarityConfig
	  C:00ABC7H        PUBLIC             ?TIM3_OC1PolarityConfig
	  C:00ABBFH        PUBLIC             ?TIM3_GenerateEvent
	  C:00AB9EH        PUBLIC             ?TIM3_OC2PreloadConfig
	  C:00AB7DH        PUBLIC             ?TIM3_OC1PreloadConfig
	  C:00AB5CH        PUBLIC             ?TIM3_ARRPreloadConfig
	  C:00AB33H        PUBLIC             ?TIM3_ForcedOC2Config
	  C:00AB0AH        PUBLIC             ?TIM3_ForcedOC1Config
	  C:00AAFDH        PUBLIC             ?TIM3_PrescalerConfig
	  C:00AADCH        PUBLIC             ?TIM3_SelectOnePulseMode
	  C:00AABBH        PUBLIC             ?TIM3_UpdateRequestConfig
	  C:00AA9AH        PUBLIC             ?TIM3_UpdateDisableConfig
	  C:00AA77H        PUBLIC             ?TIM3_ITConfig
	  C:00AA56H        PUBLIC             ?TIM3_Cmd
	  C:00A9DAH        PUBLIC             ?TIM3_PWMIConfig
	  C:00A9ACH        PUBLIC             ?TIM3_ICInit
	  C:00A934H        PUBLIC             ?TIM3_OC2Init
	  C:00A8BCH        PUBLIC             ?TIM3_OC1Init
	  C:00A8A7H        PUBLIC             ?TIM3_TimeBaseInit
	  C:00A862H        PUBLIC             ?TIM3_DeInit
	  C:00AF65H        SYMBOL             ?TI2_Config?STM8S_TIM3?S
	  C:00AEDBH        SYMBOL             ?TI1_Config?STM8S_TIM3?S
	  C:00AED1H        SYMBOL             ?TIM3_ClearITPendingBit
	  C:00AE7AH        SYMBOL             ?TIM3_GetITStatus
	  C:00AE5FH        SYMBOL             ?TIM3_ClearFlag
	  C:00ADE6H        SYMBOL             ?TIM3_GetFlagStatus
	  C:00ADE0H        SYMBOL             ?TIM3_GetPrescaler
	  C:00ADC1H        SYMBOL             ?TIM3_GetCounter
	  C:00AD87H        SYMBOL             ?TIM3_GetCapture2
	  C:00AD4DH        SYMBOL             ?TIM3_GetCapture1
	  C:00AD24H        SYMBOL             ?TIM3_SetIC2Prescaler
	  C:00ACFBH        SYMBOL             ?TIM3_SetIC1Prescaler
	  C:00ACEBH        SYMBOL             ?TIM3_SetCompare2
	  C:00ACDBH        SYMBOL             ?TIM3_SetCompare1
	  C:00ACCBH        SYMBOL             ?TIM3_SetAutoreload
	  C:00ACBBH        SYMBOL             ?TIM3_SetCounter
	  C:00AC4EH        SYMBOL             ?TIM3_SelectOCxM
	  C:00AC09H        SYMBOL             ?TIM3_CCxCmd
	  C:00ABE8H        SYMBOL             ?TIM3_OC2PolarityConfig
	  C:00ABC7H        SYMBOL             ?TIM3_OC1PolarityConfig
	  C:00ABBFH        SYMBOL             ?TIM3_GenerateEvent
	  C:00AB9EH        SYMBOL             ?TIM3_OC2PreloadConfig
	  C:00AB7DH        SYMBOL             ?TIM3_OC1PreloadConfig
	  C:00AB5CH        SYMBOL             ?TIM3_ARRPreloadConfig
	  C:00AB33H        SYMBOL             ?TIM3_ForcedOC2Config
	  C:00AB0AH        SYMBOL             ?TIM3_ForcedOC1Config
	  C:00AAFDH        SYMBOL             ?TIM3_PrescalerConfig
	  C:00AADCH        SYMBOL             ?TIM3_SelectOnePulseMode
	  C:00AABBH        SYMBOL             ?TIM3_UpdateRequestConfig
	  C:00AA9AH        SYMBOL             ?TIM3_UpdateDisableConfig
	  C:00AA77H        SYMBOL             ?TIM3_ITConfig
	  C:00AA56H        SYMBOL             ?TIM3_Cmd
	  C:00A9DAH        SYMBOL             ?TIM3_PWMIConfig
	  C:00A9ACH        SYMBOL             ?TIM3_ICInit
	  C:00A934H        SYMBOL             ?TIM3_OC2Init
	  C:00A8BCH        SYMBOL             ?TIM3_OC1Init
	  C:00A8A7H        SYMBOL             ?TIM3_TimeBaseInit
	  C:00A862H        SYMBOL             ?TIM3_DeInit
	  T:000000H        SYMBOL             TIM3_FLAG_TypeDef
	  T:000000H        SYMBOL             TIM3_UpdateSource_TypeDef
	  T:000000H        SYMBOL             TIM3_EventSource_TypeDef
	  T:000000H        SYMBOL             TIM3_PSCReloadMode_TypeDef
	  T:000000H        SYMBOL             TIM3_IT_TypeDef
	  T:000000H        SYMBOL             TIM3_ICPSC_TypeDef
	  T:000000H        SYMBOL             TIM3_ICSelection_TypeDef
	  T:000000H        SYMBOL             TIM3_ICPolarity_TypeDef
	  T:000000H        SYMBOL             TIM3_OutputState_TypeDef
	  T:000000H        SYMBOL             TIM3_OCPolarity_TypeDef
	  T:000000H        SYMBOL             TIM3_Channel_TypeDef
	  T:000000H        SYMBOL             TIM3_OPMode_TypeDef
	  T:000000H        SYMBOL             TIM3_OCMode_TypeDef
	  T:000000H        SYMBOL             TIM3_Prescaler_TypeDef
	  T:000000H        SYMBOL             TIM3_ForcedAction_TypeDef
	  T:000000H        SYMBOL             _fctptr_t
	  T:000000H        SYMBOL             UART2_IT_TypeDef
	  T:000000H        SYMBOL             UART2_Flag_TypeDef
	  T:000000H        SYMBOL             UART2_Mode_TypeDef
	  T:000000H        SYMBOL             UART2_WordLength_TypeDef
	  T:000000H        SYMBOL             UART2_SyncMode_TypeDef
	  T:000000H        SYMBOL             UART2_LinDivUp_TypeDef
	  T:000000H        SYMBOL             UART2_LinAutosync_TypeDef
	  T:000000H        SYMBOL             UART2_LinMode_TypeDef
	  T:000000H        SYMBOL             UART2_Parity_TypeDef
	  T:000000H        SYMBOL             UART2_StopBits_TypeDef
	  T:000000H        SYMBOL             UART2_LINBreakDetectionLength_TypeDef
	  T:000000H        SYMBOL             UART2_WakeUp_TypeDef
	  T:000000H        SYMBOL             UART2_IrDAMode_TypeDef
	  T:000000H        SYMBOL             GPIO_Pin_TypeDef
	  T:000000H        SYMBOL             GPIO_Mode_TypeDef
	  T:000000H        SYMBOL             CLK_CANDivider_TypeDef
	  T:000000H        SYMBOL             CLK_SWIMDivider_TypeDef
	  T:000000H        SYMBOL             CLK_Prescaler_TypeDef
	  T:000000H        SYMBOL             CLK_IT_TypeDef
	  T:000000H        SYMBOL             CLK_Flag_TypeDef
	  T:000000H        SYMBOL             CLK_Peripheral_TypeDef
	  T:000000H        SYMBOL             CLK_Output_TypeDef
	  T:000000H        SYMBOL             CLK_HSITrimValue_TypeDef
	  T:000000H        SYMBOL             CLK_Source_TypeDef
	  T:000000H        SYMBOL             CLK_CSSConfig_TypeDef
	  T:000000H        SYMBOL             CLK_CurrentClockState_TypeDef
	  T:000000H        SYMBOL             CLK_SwitchMode_TypeDef
	  T:000000H        SYMBOL             BEEP_Frequency_TypeDef
	  T:000000H        SYMBOL             CFG_TypeDef
	  T:000000H        SYMBOL             CAN_TypeDef
	  T:000000H        SYMBOL             UART3_TypeDef
	  T:000000H        SYMBOL             UART2_TypeDef
	  T:000000H        SYMBOL             UART1_TypeDef
	  T:000000H        SYMBOL             SWIM_TypeDef
	  T:000000H        SYMBOL             SPI_TypeDef
	  T:000000H        SYMBOL             RST_TypeDef
	  T:000000H        SYMBOL             WWDG_TypeDef
	  T:000000H        SYMBOL             IWDG_TypeDef
	  T:000000H        SYMBOL             OPT_TypeDef
	  T:000000H        SYMBOL             FLASH_TypeDef
	  T:000000H        SYMBOL             EXTI_TypeDef
	  T:000000H        SYMBOL             ITC_TypeDef
	  T:000000H        SYMBOL             I2C_TypeDef
	  T:000000H        SYMBOL             TIM6_TypeDef
	  T:000000H        SYMBOL             TIM5_TypeDef
	  T:000000H        SYMBOL             TIM4_TypeDef
	  T:000000H        SYMBOL             TIM3_TypeDef
	  T:000000H        SYMBOL             TIM2_TypeDef
	  T:000000H        SYMBOL             TIM1_TypeDef
	  T:000000H        SYMBOL             CLK_TypeDef
	  T:000000H        SYMBOL             BEEP_TypeDef
	  T:000000H        SYMBOL             AWU_TypeDef
	  T:000000H        SYMBOL             ADC1_TypeDef
	  T:000000H        SYMBOL             GPIO_TypeDef
	  T:000000H        SYMBOL             ErrorStatus
	  T:000000H        SYMBOL             FunctionalState
	  T:000000H        SYMBOL             BitStatus
	  T:000000H        SYMBOL             ITStatus
	  T:000000H        SYMBOL             FlagStatus
	  T:000000H        SYMBOL             bool
	  T:000000H        SYMBOL             vuc8
	  T:000000H        SYMBOL             vuc16
	  T:000000H        SYMBOL             vuc32
	  T:000000H        SYMBOL             vu8
	  T:000000H        SYMBOL             vu16
	  T:000000H        SYMBOL             vu32
	  T:000000H        SYMBOL             uc8
	  T:000000H        SYMBOL             uc16
	  T:000000H        SYMBOL             uc32
	  T:000000H        SYMBOL             u8
	  T:000000H        SYMBOL             u16
	  T:000000H        SYMBOL             u32
	  T:000000H        SYMBOL             vsc8
	  T:000000H        SYMBOL             vsc16
	  T:000000H        SYMBOL             vsc32
	  T:000000H        SYMBOL             vs8
	  T:000000H        SYMBOL             vs16
	  T:000000H        SYMBOL             vs32
	  T:000000H        SYMBOL             sc8
	  T:000000H        SYMBOL             sc16
	  T:000000H        SYMBOL             sc32
	  T:000000H        SYMBOL             s8
	  T:000000H        SYMBOL             s16
	  T:000000H        SYMBOL             s32
	  N:000FFEH        SYMBOL             _ICE_DUMMY_
	----------         PROC-ST7           ?PR??TIM3_DEINIT?STM8S_TIM3
	  C:00A862H        LINE#              43
	  C:00A862H        LINE#              46
	  C:00A866H        LINE#              47
	  C:00A86AH        LINE#              48
	  C:00A86EH        LINE#              51
	  C:00A872H        LINE#              54
	  C:00A876H        LINE#              55
	  C:00A87AH        LINE#              56
	  C:00A87EH        LINE#              57
	  C:00A882H        LINE#              58
	  C:00A886H        LINE#              59
	  C:00A88AH        LINE#              60
	  C:00A88EH        LINE#              61
	  C:00A892H        LINE#              62
	  C:00A896H        LINE#              63
	  C:00A89AH        LINE#              64
	  C:00A89EH        LINE#              65
	  C:00A8A2H        LINE#              66
	  C:00A8A6H        LINE#              67
	----------         ENDPROC-ST7        
	----------         PROC-ST7           ?PR??TIM3_TIMEBASEINIT?STM8S_TIM3
	  S:000001H        SYMBOL             TIM3_Prescaler
	  S:000005H        SYMBOL             TIM3_Period
	  C:00A8A7H        LINE#              76
	  C:00A8A8H        LINE#              80
	  C:00A8ADH        LINE#              82
	  C:00A8B5H        LINE#              83
	  C:00A8BBH        LINE#              84
	----------         ENDPROC-ST7        
	----------         PROC-ST7           ?PR??TIM3_OC1INIT?STM8S_TIM3
	  S:000001H        SYMBOL             TIM3_OCMode
	  S:000005H        SYMBOL             TIM3_OutputState
	  S:000007H        SYMBOL             TIM3_Pulse
	  S:000009H        SYMBOL             TIM3_OCPolarity
	  C:00A8BCH        LINE#              94
	  C:00A8BDH        LINE#              100
	  C:00A8BDH        LINE#              101
	  C:00A8BDH        LINE#              102
	  C:00A8BDH        LINE#              105
	  C:00A8C9H        LINE#              107
	  C:00A8FFH        LINE#              110
	  C:00A925H        LINE#              113
	  C:00A92DH        LINE#              114
	  C:00A933H        LINE#              115
	----------         ENDPROC-ST7        
	----------         PROC-ST7           ?PR??TIM3_OC2INIT?STM8S_TIM3
	  S:000001H        SYMBOL             TIM3_OCMode
	  S:000005H        SYMBOL             TIM3_OutputState
	  S:000007H        SYMBOL             TIM3_Pulse
	  S:000009H        SYMBOL             TIM3_OCPolarity
	  C:00A934H        LINE#              126
	  C:00A935H        LINE#              132
	  C:00A935H        LINE#              133
	  C:00A935H        LINE#              134
	  C:00A935H        LINE#              138
	  C:00A941H        LINE#              140
	  C:00A977H        LINE#              144
	  C:00A99DH        LINE#              148
	  C:00A9A5H        LINE#              149
	  C:00A9ABH        LINE#              150
	----------         ENDPROC-ST7        
	----------         PROC-ST7           ?PR??TIM3_ICINIT?STM8S_TIM3
	  S:000001H        SYMBOL             TIM3_Channel
	  S:000005H        SYMBOL             TIM3_ICPolarity
	  S:000007H        SYMBOL             TIM3_ICSelection
	  S:000009H        SYMBOL             TIM3_ICPrescaler
	  S:00000BH        SYMBOL             TIM3_ICFilter
	  C:00A9ACH        LINE#              161
	  C:00A9ADH        LINE#              168
	  C:00A9ADH        LINE#              169
	  C:00A9ADH        LINE#              170
	  C:00A9ADH        LINE#              171
	  C:00A9ADH        LINE#              172
	  C:00A9ADH        LINE#              174
	  C:00A9B4H        LINE#              175
	  C:00A9B4H        LINE#              179
	  C:00A9C0H        LINE#              182
	  C:00A9C7H        LINE#              185
	  C:00A9C7H        LINE#              189
	  C:00A9D3H        LINE#              192
	  C:00A9D9H        LINE#              194
	----------         ENDPROC-ST7        
	----------         PROC-ST7           ?PR??TIM3_PWMICONFIG?STM8S_TIM3
	  S:000003H        SYMBOL             TIM3_Channel
	  S:000007H        SYMBOL             TIM3_ICPolarity
	  S:000009H        SYMBOL             TIM3_ICSelection
	  S:00000BH        SYMBOL             TIM3_ICPrescaler
	  S:00000DH        SYMBOL             TIM3_ICFilter
	  S:000001H        SYMBOL             icpolarity
	  S:000002H        SYMBOL             icselection
	  C:00A9DAH        LINE#              204
	  C:00A9DCH        LINE#              210
	  C:00A9E0H        LINE#              211
	  C:00A9E4H        LINE#              214
	  C:00A9E4H        LINE#              215
	  C:00A9E4H        LINE#              216
	  C:00A9E4H        LINE#              217
	  C:00A9E4H        LINE#              220
	  C:00A9EBH        LINE#              221
	  C:00A9EBH        LINE#              222
	  C:00A9F1H        LINE#              225
	  C:00A9F1H        LINE#              226
	  C:00A9F5H        LINE#              230
	  C:00A9FCH        LINE#              231
	  C:00A9FCH        LINE#              232
	  C:00AA02H        LINE#              235
	  C:00AA02H        LINE#              236
	  C:00AA06H        LINE#              239
	  C:00AA0DH        LINE#              240
	  C:00AA0DH        LINE#              243
	  C:00AA19H        LINE#              246
	  C:00AA1EH        LINE#              249
	  C:00AA2AH        LINE#              252
	  C:00AA31H        LINE#              255
	  C:00AA31H        LINE#              258
	  C:00AA3DH        LINE#              261
	  C:00AA42H        LINE#              264
	  C:00AA4EH        LINE#              267
	  C:00AA55H        LINE#              269
	----------         ENDPROC-ST7        
	----------         PROC-ST7           ?PR??TIM3_CMD?STM8S_TIM3
	  S:000001H        SYMBOL             NewState
	  C:00AA56H        LINE#              278
	  C:00AA57H        LINE#              281
	  C:00AA57H        LINE#              284
	  C:00AA5BH        LINE#              285
	  C:00AA5BH        LINE#              286
	  C:00AA69H        LINE#              289
	  C:00AA69H        LINE#              290
	  C:00AA76H        LINE#              292
	----------         ENDPROC-ST7        
	----------         PROC-ST7           ?PR??TIM3_ITCONFIG?STM8S_TIM3
	  S:000001H        SYMBOL             TIM3_IT
	  S:000005H        SYMBOL             NewState
	  C:00AA77H        LINE#              307
	  C:00AA78H        LINE#              310
	  C:00AA78H        LINE#              311
	  C:00AA78H        LINE#              313
	  C:00AA7CH        LINE#              314
	  C:00AA7CH        LINE#              316
	  C:00AA8AH        LINE#              319
	  C:00AA8AH        LINE#              321
	  C:00AA99H        LINE#              323
	----------         ENDPROC-ST7        
	----------         PROC-ST7           ?PR??TIM3_UPDATEDISABLECONFIG?STM8S_TIM3
	  S:000001H        SYMBOL             NewState
	  C:00AA9AH        LINE#              332
	  C:00AA9BH        LINE#              335
	  C:00AA9BH        LINE#              338
	  C:00AA9FH        LINE#              339
	  C:00AA9FH        LINE#              340
	  C:00AAADH        LINE#              343
	  C:00AAADH        LINE#              344
	  C:00AABAH        LINE#              346
	----------         ENDPROC-ST7        
	----------         PROC-ST7           ?PR??TIM3_UPDATEREQUESTCONFIG?STM8S_TIM3
	  S:000001H        SYMBOL             TIM3_UpdateSource
	  C:00AABBH        LINE#              356
	  C:00AABCH        LINE#              359
	  C:00AABCH        LINE#              362
	  C:00AAC0H        LINE#              363
	  C:00AAC0H        LINE#              364
	  C:00AACEH        LINE#              367
	  C:00AACEH        LINE#              368
	  C:00AADBH        LINE#              370
	----------         ENDPROC-ST7        
	----------         PROC-ST7           ?PR??TIM3_SELECTONEPULSEMODE?STM8S_TIM3
	  S:000001H        SYMBOL             TIM3_OPMode
	  C:00AADCH        LINE#              381
	  C:00AADDH        LINE#              384
	  C:00AADDH        LINE#              387
	  C:00AAE1H        LINE#              388
	  C:00AAE1H        LINE#              389
	  C:00AAEFH        LINE#              392
	  C:00AAEFH        LINE#              393
	  C:00AAFCH        LINE#              396
	----------         ENDPROC-ST7        
	----------         PROC-ST7           ?PR??TIM3_PRESCALERCONFIG?STM8S_TIM3
	  S:000001H        SYMBOL             Prescaler
	  S:000005H        SYMBOL             TIM3_PSCReloadMode
	  C:00AAFDH        LINE#              427
	  C:00AAFEH        LINE#              431
	  C:00AAFEH        LINE#              432
	  C:00AAFEH        LINE#              435
	  C:00AB03H        LINE#              438
	  C:00AB09H        LINE#              439
	----------         ENDPROC-ST7        
	----------         PROC-ST7           ?PR??TIM3_FORCEDOC1CONFIG?STM8S_TIM3
	  S:000001H        SYMBOL             TIM3_ForcedAction
	  C:00AB0AH        LINE#              450
	  C:00AB0BH        LINE#              453
	  C:00AB0BH        LINE#              456
	  C:00AB32H        LINE#              457
	----------         ENDPROC-ST7        
	----------         PROC-ST7           ?PR??TIM3_FORCEDOC2CONFIG?STM8S_TIM3
	  S:000001H        SYMBOL             TIM3_ForcedAction
	  C:00AB33H        LINE#              468
	  C:00AB34H        LINE#              471
	  C:00AB34H        LINE#              474
	  C:00AB5BH        LINE#              475
	----------         ENDPROC-ST7        
	----------         PROC-ST7           ?PR??TIM3_ARRPRELOADCONFIG?STM8S_TIM3
	  S:000001H        SYMBOL             NewState
	  C:00AB5CH        LINE#              484
	  C:00AB5DH        LINE#              487
	  C:00AB5DH        LINE#              490
	  C:00AB61H        LINE#              491
	  C:00AB61H        LINE#              492
	  C:00AB6FH        LINE#              495
	  C:00AB6FH        LINE#              496
	  C:00AB7CH        LINE#              498
	----------         ENDPROC-ST7        
	----------         PROC-ST7           ?PR??TIM3_OC1PRELOADCONFIG?STM8S_TIM3
	  S:000001H        SYMBOL             NewState
	  C:00AB7DH        LINE#              507
	  C:00AB7EH        LINE#              510
	  C:00AB7EH        LINE#              513
	  C:00AB82H        LINE#              514
	  C:00AB82H        LINE#              515
	  C:00AB90H        LINE#              518
	  C:00AB90H        LINE#              519
	  C:00AB9DH        LINE#              521
	----------         ENDPROC-ST7        
	----------         PROC-ST7           ?PR??TIM3_OC2PRELOADCONFIG?STM8S_TIM3
	  S:000001H        SYMBOL             NewState
	  C:00AB9EH        LINE#              530
	  C:00AB9FH        LINE#              533
	  C:00AB9FH        LINE#              536
	  C:00ABA3H        LINE#              537
	  C:00ABA3H        LINE#              538
	  C:00ABB1H        LINE#              541
	  C:00ABB1H        LINE#              542
	  C:00ABBEH        LINE#              544
	----------         ENDPROC-ST7        
	----------         PROC-ST7           ?PR??TIM3_GENERATEEVENT?STM8S_TIM3
	  S:000001H        SYMBOL             TIM3_EventSource
	  C:00ABBFH        LINE#              555
	  C:00ABC0H        LINE#              558
	  C:00ABC0H        LINE#              561
	  C:00ABC6H        LINE#              562
	----------         ENDPROC-ST7        
	----------         PROC-ST7           ?PR??TIM3_OC1POLARITYCONFIG?STM8S_TIM3
	  S:000001H        SYMBOL             TIM3_OCPolarity
	  C:00ABC7H        LINE#              573
	  C:00ABC8H        LINE#              576
	  C:00ABC8H        LINE#              579
	  C:00ABCCH        LINE#              580
	  C:00ABCCH        LINE#              581
	  C:00ABDAH        LINE#              584
	  C:00ABDAH        LINE#              585
	  C:00ABE7H        LINE#              587
	----------         ENDPROC-ST7        
	----------         PROC-ST7           ?PR??TIM3_OC2POLARITYCONFIG?STM8S_TIM3
	  S:000001H        SYMBOL             TIM3_OCPolarity
	  C:00ABE8H        LINE#              598
	  C:00ABE9H        LINE#              601
	  C:00ABE9H        LINE#              604
	  C:00ABEDH        LINE#              605
	  C:00ABEDH        LINE#              606
	  C:00ABFBH        LINE#              609
	  C:00ABFBH        LINE#              610
	  C:00AC08H        LINE#              612
	----------         ENDPROC-ST7        
	----------         PROC-ST7           ?PR??TIM3_CCXCMD?STM8S_TIM3
	  S:000001H        SYMBOL             TIM3_Channel
	  S:000005H        SYMBOL             NewState
	  C:00AC09H        LINE#              625
	  C:00AC0AH        LINE#              628
	  C:00AC0AH        LINE#              629
	  C:00AC0AH        LINE#              631
	  C:00AC0EH        LINE#              632
	  C:00AC0EH        LINE#              634
	  C:00AC12H        LINE#              635
	  C:00AC12H        LINE#              636
	  C:00AC20H        LINE#              639
	  C:00AC20H        LINE#              640
	  C:00AC2EH        LINE#              645
	  C:00AC2EH        LINE#              647
	  C:00AC32H        LINE#              648
	  C:00AC32H        LINE#              649
	  C:00AC40H        LINE#              652
	  C:00AC40H        LINE#              653
	  C:00AC4DH        LINE#              657
	----------         ENDPROC-ST7        
	----------         PROC-ST7           ?PR??TIM3_SELECTOCXM?STM8S_TIM3
	  S:000001H        SYMBOL             TIM3_Channel
	  S:000005H        SYMBOL             TIM3_OCMode
	  C:00AC4EH        LINE#              678
	  C:00AC4FH        LINE#              681
	  C:00AC4FH        LINE#              682
	  C:00AC4FH        LINE#              684
	  C:00AC53H        LINE#              685
	  C:00AC53H        LINE#              687
	  C:00AC5FH        LINE#              690
	  C:00AC87H        LINE#              693
	  C:00AC87H        LINE#              695
	  C:00AC93H        LINE#              698
	  C:00ACBAH        LINE#              700
	----------         ENDPROC-ST7        
	----------         PROC-ST7           ?PR??TIM3_SETCOUNTER?STM8S_TIM3
	  S:000001H        SYMBOL             Counter
	  C:00ACBBH        LINE#              709
	  C:00ACBCH        LINE#              712
	  C:00ACC4H        LINE#              713
	  C:00ACCAH        LINE#              715
	----------         ENDPROC-ST7        
	----------         PROC-ST7           ?PR??TIM3_SETAUTORELOAD?STM8S_TIM3
	  S:000001H        SYMBOL             Autoreload
	  C:00ACCBH        LINE#              724
	  C:00ACCCH        LINE#              727
	  C:00ACD4H        LINE#              728
	  C:00ACDAH        LINE#              729
	----------         ENDPROC-ST7        
	----------         PROC-ST7           ?PR??TIM3_SETCOMPARE1?STM8S_TIM3
	  S:000001H        SYMBOL             Compare1
	  C:00ACDBH        LINE#              738
	  C:00ACDCH        LINE#              741
	  C:00ACE4H        LINE#              742
	  C:00ACEAH        LINE#              743
	----------         ENDPROC-ST7        
	----------         PROC-ST7           ?PR??TIM3_SETCOMPARE2?STM8S_TIM3
	  S:000001H        SYMBOL             Compare2
	  C:00ACEBH        LINE#              752
	  C:00ACECH        LINE#              755
	  C:00ACF4H        LINE#              756
	  C:00ACFAH        LINE#              757
	----------         ENDPROC-ST7        
	----------         PROC-ST7           ?PR??TIM3_SETIC1PRESCALER?STM8S_TIM3
	  S:000001H        SYMBOL             TIM3_IC1Prescaler
	  C:00ACFBH        LINE#              770
	  C:00ACFCH        LINE#              773
	  C:00ACFCH        LINE#              776
	  C:00AD23H        LINE#              777
	----------         ENDPROC-ST7        
	----------         PROC-ST7           ?PR??TIM3_SETIC2PRESCALER?STM8S_TIM3
	  S:000001H        SYMBOL             TIM3_IC2Prescaler
	  C:00AD24H        LINE#              789
	  C:00AD25H        LINE#              792
	  C:00AD25H        LINE#              795
	  C:00AD4CH        LINE#              796
	----------         ENDPROC-ST7        
	----------         PROC-ST7           ?PR??TIM3_GETCAPTURE1?STM8S_TIM3
	  S:000001H        SYMBOL             tmpccr1
	  S:000003H        SYMBOL             tmpccr1l
	  S:000004H        SYMBOL             tmpccr1h
	  C:00AD4DH        LINE#              803
	  C:00AD4FH        LINE#              806
	  C:00AD54H        LINE#              807
	  C:00AD5CH        LINE#              809
	  C:00AD61H        LINE#              810
	  C:00AD66H        LINE#              812
	  C:00AD6CH        LINE#              813
	  C:00AD82H        LINE#              815
	  C:00AD86H        LINE#              816
	----------         ENDPROC-ST7        
	----------         PROC-ST7           ?PR??TIM3_GETCAPTURE2?STM8S_TIM3
	  S:000001H        SYMBOL             tmpccr2
	  S:000003H        SYMBOL             tmpccr2l
	  S:000004H        SYMBOL             tmpccr2h
	  C:00AD87H        LINE#              824
	  C:00AD89H        LINE#              827
	  C:00AD8EH        LINE#              828
	  C:00AD96H        LINE#              830
	  C:00AD9BH        LINE#              831
	  C:00ADA0H        LINE#              833
	  C:00ADA6H        LINE#              834
	  C:00ADBCH        LINE#              836
	  C:00ADC0H        LINE#              837
	----------         ENDPROC-ST7        
	----------         PROC-ST7           ?PR??TIM3_GETCOUNTER?STM8S_TIM3
	  C:00ADC1H        LINE#              845
	  C:00ADC1H        LINE#              848
	  C:00ADDFH        LINE#              849
	----------         ENDPROC-ST7        
	----------         PROC-ST7           ?PR??TIM3_GETPRESCALER?STM8S_TIM3
	  C:00ADE0H        LINE#              858
	  C:00ADE0H        LINE#              861
	  C:00ADE5H        LINE#              862
	----------         ENDPROC-ST7        
	----------         PROC-ST7           ?PR??TIM3_GETFLAGSTATUS?STM8S_TIM3
	  S:000005H        SYMBOL             TIM3_FLAG
	  S:000001H        SYMBOL             bitstatus
	  S:000003H        SYMBOL             tim3_flag_l
	  S:000004H        SYMBOL             tim3_flag_h
	  C:00ADE6H        LINE#              876
	  C:00ADE9H        LINE#              878
	  C:00ADEEH        LINE#              882
	  C:00ADEEH        LINE#              884
	  C:00ADF2H        LINE#              885
	  C:00ADFCH        LINE#              887
	  C:00AE4EH        LINE#              888
	  C:00AE4EH        LINE#              889
	  C:00AE55H        LINE#              892
	  C:00AE55H        LINE#              893
	  C:00AE5AH        LINE#              895
	  C:00AE5EH        LINE#              896
	----------         ENDPROC-ST7        
	----------         PROC-ST7           ?PR??TIM3_CLEARFLAG?STM8S_TIM3
	  S:000001H        SYMBOL             TIM3_FLAG
	  C:00AE5FH        LINE#              910
	  C:00AE60H        LINE#              913
	  C:00AE60H        LINE#              916
	  C:00AE69H        LINE#              917
	  C:00AE79H        LINE#              918
	----------         ENDPROC-ST7        
	----------         PROC-ST7           ?PR??TIM3_GETITSTATUS?STM8S_TIM3
	  S:000005H        SYMBOL             TIM3_IT
	  S:000001H        SYMBOL             bitstatus
	  S:000003H        SYMBOL             TIM3_itStatus
	  S:000004H        SYMBOL             TIM3_itEnable
	  C:00AE7AH        LINE#              931
	  C:00AE7DH        LINE#              933
	  C:00AE82H        LINE#              934
	  C:00AE8AH        LINE#              937
	  C:00AE8AH        LINE#              939
	  C:00AE9FH        LINE#              941
	  C:00AEB4H        LINE#              943
	  C:00AEC0H        LINE#              944
	  C:00AEC0H        LINE#              945
	  C:00AEC7H        LINE#              948
	  C:00AEC7H        LINE#              949
	  C:00AECCH        LINE#              951
	  C:00AED0H        LINE#              952
	----------         ENDPROC-ST7        
	----------         PROC-ST7           ?PR??TIM3_CLEARITPENDINGBIT?STM8S_TIM3
	  S:000001H        SYMBOL             TIM3_IT
	  C:00AED1H        LINE#              964
	  C:00AED2H        LINE#              967
	  C:00AED2H        LINE#              970
	  C:00AEDAH        LINE#              971
	----------         ENDPROC-ST7        
	----------         PROC-ST7           ?PR??TI1_CONFIG?STM8S_TIM3?S?STM8S_TIM3
	  S:000001H        SYMBOL             TIM3_ICPolarity
	  S:000004H        SYMBOL             TIM3_ICSelection
	  S:000005H        SYMBOL             TIM3_ICFilter
	  C:00AEDBH        LINE#              990
	  C:00AEDCH        LINE#              995
	  C:00AEE8H        LINE#              998
	  C:00AF39H        LINE#              1001
	  C:00AF3DH        LINE#              1002
	  C:00AF3DH        LINE#              1003
	  C:00AF4BH        LINE#              1006
	  C:00AF4BH        LINE#              1007
	  C:00AF57H        LINE#              1010
	  C:00AF64H        LINE#              1011
	----------         ENDPROC-ST7        
	----------         PROC-ST7           ?PR??TI2_CONFIG?STM8S_TIM3?S?STM8S_TIM3
	  S:000001H        SYMBOL             TIM3_ICPolarity
	  S:000004H        SYMBOL             TIM3_ICSelection
	  S:000005H        SYMBOL             TIM3_ICFilter
	  C:00AF65H        LINE#              1030
	  C:00AF66H        LINE#              1035
	  C:00AF72H        LINE#              1038
	  C:00AFC3H        LINE#              1042
	  C:00AFC7H        LINE#              1043
	  C:00AFC7H        LINE#              1044
	  C:00AFD5H        LINE#              1047
	  C:00AFD5H        LINE#              1048
	  C:00AFE1H        LINE#              1052
	  C:00AFEEH        LINE#              1054
	----------         ENDPROC-ST7        
	----------         EndModule-ST7      
	----------         TranslatorMod-ST7  STM8S_UART2
	  C:00B814H        PUBLIC             ?UART2_ClearITPendingBit
	  C:00B64FH        PUBLIC             ?UART2_GetITStatus
	  C:00B609H        PUBLIC             ?UART2_ClearFlag
	  C:00B526H        PUBLIC             ?UART2_GetFlagStatus
	  C:00B51EH        PUBLIC             ?UART2_SetPrescaler
	  C:00B516H        PUBLIC             ?UART2_SetGuardTime
	  C:00B4FBH        PUBLIC             ?UART2_SetAddress
	  C:00B4EEH        PUBLIC             ?UART2_SendBreak
	  C:00B488H        PUBLIC             ?UART2_SendData9
	  C:00B480H        PUBLIC             ?UART2_SendData8
	  C:00B44EH        PUBLIC             ?UART2_ReceiveData9
	  C:00B44AH        PUBLIC             ?UART2_ReceiveData8
	  C:00B429H        PUBLIC             ?UART2_ReceiverWakeUpCmd
	  C:00B40EH        PUBLIC             ?UART2_WakeUpConfig
	  C:00B3EDH        PUBLIC             ?UART2_SmartCardNACKCmd
	  C:00B3CCH        PUBLIC             ?UART2_SmartCardCmd
	  C:00B3ABH        PUBLIC             ?UART2_LINCmd
	  C:00B34EH        PUBLIC             ?UART2_LINConfig
	  C:00B32DH        PUBLIC             ?UART2_LINBreakDetectionConfig
	  C:00B30CH        PUBLIC             ?UART2_IrDACmd
	  C:00B2EBH        PUBLIC             ?UART2_IrDAConfig
	  C:00B20EH        PUBLIC             ?UART2_ITConfig
	  C:00B1EDH        PUBLIC             ?UART2_Cmd
	  C:00B020H        PUBLIC             ?UART2_Init
	  C:00AFEFH        PUBLIC             ?UART2_DeInit
	  C:00B814H        SYMBOL             ?UART2_ClearITPendingBit
	  C:00B64FH        SYMBOL             ?UART2_GetITStatus
	  C:00B609H        SYMBOL             ?UART2_ClearFlag
	  C:00B526H        SYMBOL             ?UART2_GetFlagStatus
	  C:00B51EH        SYMBOL             ?UART2_SetPrescaler
	  C:00B516H        SYMBOL             ?UART2_SetGuardTime
	  C:00B4FBH        SYMBOL             ?UART2_SetAddress
	  C:00B4EEH        SYMBOL             ?UART2_SendBreak
	  C:00B488H        SYMBOL             ?UART2_SendData9
	  C:00B480H        SYMBOL             ?UART2_SendData8
	  C:00B44EH        SYMBOL             ?UART2_ReceiveData9
	  C:00B44AH        SYMBOL             ?UART2_ReceiveData8
	  C:00B429H        SYMBOL             ?UART2_ReceiverWakeUpCmd
	  C:00B40EH        SYMBOL             ?UART2_WakeUpConfig
	  C:00B3EDH        SYMBOL             ?UART2_SmartCardNACKCmd
	  C:00B3CCH        SYMBOL             ?UART2_SmartCardCmd
	  C:00B3ABH        SYMBOL             ?UART2_LINCmd
	  C:00B34EH        SYMBOL             ?UART2_LINConfig
	  C:00B32DH        SYMBOL             ?UART2_LINBreakDetectionConfig
	  C:00B30CH        SYMBOL             ?UART2_IrDACmd
	  C:00B2EBH        SYMBOL             ?UART2_IrDAConfig
	  C:00B20EH        SYMBOL             ?UART2_ITConfig
	  C:00B1EDH        SYMBOL             ?UART2_Cmd
	  C:00B020H        SYMBOL             ?UART2_Init
	  C:00AFEFH        SYMBOL             ?UART2_DeInit
	  T:000000H        SYMBOL             UART2_IT_TypeDef
	  T:000000H        SYMBOL             UART2_Flag_TypeDef
	  T:000000H        SYMBOL             UART2_Mode_TypeDef
	  T:000000H        SYMBOL             UART2_WordLength_TypeDef
	  T:000000H        SYMBOL             UART2_SyncMode_TypeDef
	  T:000000H        SYMBOL             UART2_LinDivUp_TypeDef
	  T:000000H        SYMBOL             UART2_LinAutosync_TypeDef
	  T:000000H        SYMBOL             UART2_LinMode_TypeDef
	  T:000000H        SYMBOL             UART2_Parity_TypeDef
	  T:000000H        SYMBOL             UART2_StopBits_TypeDef
	  T:000000H        SYMBOL             UART2_LINBreakDetectionLength_TypeDef
	  T:000000H        SYMBOL             UART2_WakeUp_TypeDef
	  T:000000H        SYMBOL             UART2_IrDAMode_TypeDef
	  T:000000H        SYMBOL             _fctptr_t
	  T:000000H        SYMBOL             TIM3_FLAG_TypeDef
	  T:000000H        SYMBOL             TIM3_UpdateSource_TypeDef
	  T:000000H        SYMBOL             TIM3_EventSource_TypeDef
	  T:000000H        SYMBOL             TIM3_PSCReloadMode_TypeDef
	  T:000000H        SYMBOL             TIM3_IT_TypeDef
	  T:000000H        SYMBOL             TIM3_ICPSC_TypeDef
	  T:000000H        SYMBOL             TIM3_ICSelection_TypeDef
	  T:000000H        SYMBOL             TIM3_ICPolarity_TypeDef
	  T:000000H        SYMBOL             TIM3_OutputState_TypeDef
	  T:000000H        SYMBOL             TIM3_OCPolarity_TypeDef
	  T:000000H        SYMBOL             TIM3_Channel_TypeDef
	  T:000000H        SYMBOL             TIM3_OPMode_TypeDef
	  T:000000H        SYMBOL             TIM3_OCMode_TypeDef
	  T:000000H        SYMBOL             TIM3_Prescaler_TypeDef
	  T:000000H        SYMBOL             TIM3_ForcedAction_TypeDef
	  T:000000H        SYMBOL             GPIO_Pin_TypeDef
	  T:000000H        SYMBOL             GPIO_Mode_TypeDef
	  T:000000H        SYMBOL             CLK_CANDivider_TypeDef
	  T:000000H        SYMBOL             CLK_SWIMDivider_TypeDef
	  T:000000H        SYMBOL             CLK_Prescaler_TypeDef
	  T:000000H        SYMBOL             CLK_IT_TypeDef
	  T:000000H        SYMBOL             CLK_Flag_TypeDef
	  T:000000H        SYMBOL             CLK_Peripheral_TypeDef
	  T:000000H        SYMBOL             CLK_Output_TypeDef
	  T:000000H        SYMBOL             CLK_HSITrimValue_TypeDef
	  T:000000H        SYMBOL             CLK_Source_TypeDef
	  T:000000H        SYMBOL             CLK_CSSConfig_TypeDef
	  T:000000H        SYMBOL             CLK_CurrentClockState_TypeDef
	  T:000000H        SYMBOL             CLK_SwitchMode_TypeDef
	  T:000000H        SYMBOL             BEEP_Frequency_TypeDef
	  T:000000H        SYMBOL             CFG_TypeDef
	  T:000000H        SYMBOL             CAN_TypeDef
	  T:000000H        SYMBOL             UART3_TypeDef
	  T:000000H        SYMBOL             UART2_TypeDef
	  T:000000H        SYMBOL             UART1_TypeDef
	  T:000000H        SYMBOL             SWIM_TypeDef
	  T:000000H        SYMBOL             SPI_TypeDef
	  T:000000H        SYMBOL             RST_TypeDef
	  T:000000H        SYMBOL             WWDG_TypeDef
	  T:000000H        SYMBOL             IWDG_TypeDef
	  T:000000H        SYMBOL             OPT_TypeDef
	  T:000000H        SYMBOL             FLASH_TypeDef
	  T:000000H        SYMBOL             EXTI_TypeDef
	  T:000000H        SYMBOL             ITC_TypeDef
	  T:000000H        SYMBOL             I2C_TypeDef
	  T:000000H        SYMBOL             TIM6_TypeDef
	  T:000000H        SYMBOL             TIM5_TypeDef
	  T:000000H        SYMBOL             TIM4_TypeDef
	  T:000000H        SYMBOL             TIM3_TypeDef
	  T:000000H        SYMBOL             TIM2_TypeDef
	  T:000000H        SYMBOL             TIM1_TypeDef
	  T:000000H        SYMBOL             CLK_TypeDef
	  T:000000H        SYMBOL             BEEP_TypeDef
	  T:000000H        SYMBOL             AWU_TypeDef
	  T:000000H        SYMBOL             ADC1_TypeDef
	  T:000000H        SYMBOL             GPIO_TypeDef
	  T:000000H        SYMBOL             ErrorStatus
	  T:000000H        SYMBOL             FunctionalState
	  T:000000H        SYMBOL             BitStatus
	  T:000000H        SYMBOL             ITStatus
	  T:000000H        SYMBOL             FlagStatus
	  T:000000H        SYMBOL             bool
	  T:000000H        SYMBOL             vuc8
	  T:000000H        SYMBOL             vuc16
	  T:000000H        SYMBOL             vuc32
	  T:000000H        SYMBOL             vu8
	  T:000000H        SYMBOL             vu16
	  T:000000H        SYMBOL             vu32
	  T:000000H        SYMBOL             uc8
	  T:000000H        SYMBOL             uc16
	  T:000000H        SYMBOL             uc32
	  T:000000H        SYMBOL             u8
	  T:000000H        SYMBOL             u16
	  T:000000H        SYMBOL             u32
	  T:000000H        SYMBOL             vsc8
	  T:000000H        SYMBOL             vsc16
	  T:000000H        SYMBOL             vsc32
	  T:000000H        SYMBOL             vs8
	  T:000000H        SYMBOL             vs16
	  T:000000H        SYMBOL             vs32
	  T:000000H        SYMBOL             sc8
	  T:000000H        SYMBOL             sc16
	  T:000000H        SYMBOL             sc32
	  T:000000H        SYMBOL             s8
	  T:000000H        SYMBOL             s16
	  T:000000H        SYMBOL             s32
	  N:000FFEH        SYMBOL             _ICE_DUMMY_
	----------         PROC-ST7           ?PR??UART2_DEINIT?STM8S_UART2
	  S:000001H        SYMBOL             dummy
	  C:00AFEFH        LINE#              46
	  C:00AFF0H        LINE#              48
	  C:00AFF4H        LINE#              51
	  C:00AFF9H        LINE#              52
	  C:00AFFEH        LINE#              54
	  C:00B002H        LINE#              55
	  C:00B006H        LINE#              57
	  C:00B00AH        LINE#              58
	  C:00B00EH        LINE#              59
	  C:00B012H        LINE#              60
	  C:00B016H        LINE#              61
	  C:00B01AH        LINE#              62
	  C:00B01FH        LINE#              64
	----------         ENDPROC-ST7        
	----------         PROC-ST7           ?PR??UART2_INIT?STM8S_UART2
	  S:00000DH        SYMBOL             BaudRate
	  S:000011H        SYMBOL             WordLength
	  S:000013H        SYMBOL             StopBits
	  S:000015H        SYMBOL             Parity
	  S:000017H        SYMBOL             SyncMode
	  S:000019H        SYMBOL             Mode
	  S:000001H        SYMBOL             BRR2_1
	  S:000002H        SYMBOL             BRR2_2
	  S:000003H        SYMBOL             BaudRate_Mantissa
	  S:000007H        SYMBOL             BaudRate_Mantissa100
	  C:00B020H        LINE#              76
	  C:00B022H        LINE#              78
	  C:00B026H        LINE#              79
	  C:00B02BH        LINE#              82
	  C:00B02BH        LINE#              84
	  C:00B02BH        LINE#              86
	  C:00B02BH        LINE#              88
	  C:00B02BH        LINE#              91
	  C:00B02BH        LINE#              95
	  C:00B02BH        LINE#              97
	  C:00B037H        LINE#              98
	  C:00B043H        LINE#              100
	  C:00B04FH        LINE#              101
	  C:00B05BH        LINE#              103
	  C:00B067H        LINE#              104
	  C:00B073H        LINE#              106
	  C:00B07FH        LINE#              107
	  C:00B08BH        LINE#              108
	  C:00B097H        LINE#              111
	  C:00B0AFH        LINE#              112
	  C:00B0CEH        LINE#              115
	  C:00B102H        LINE#              116
	  C:00B117H        LINE#              118
	  C:00B138H        LINE#              119
	  C:00B13DH        LINE#              121
	  C:00B149H        LINE#              122
	  C:00B155H        LINE#              123
	  C:00B171H        LINE#              125
	  C:00B17AH        LINE#              126
	  C:00B17AH        LINE#              127
	  C:00B188H        LINE#              130
	  C:00B188H        LINE#              131
	  C:00B194H        LINE#              133
	  C:00B19DH        LINE#              134
	  C:00B19DH        LINE#              135
	  C:00B1ABH        LINE#              138
	  C:00B1ABH        LINE#              139
	  C:00B1B7H        LINE#              142
	  C:00B1C0H        LINE#              143
	  C:00B1C0H        LINE#              144
	  C:00B1CEH        LINE#              148
	  C:00B1CEH        LINE#              149
	  C:00B1ECH        LINE#              151
	----------         ENDPROC-ST7        
	----------         PROC-ST7           ?PR??UART2_CMD?STM8S_UART2
	  S:000001H        SYMBOL             NewState
	  C:00B1EDH        LINE#              162
	  C:00B1EEH        LINE#              165
	  C:00B1F2H        LINE#              166
	  C:00B1F2H        LINE#              167
	  C:00B200H        LINE#              170
	  C:00B200H        LINE#              171
	  C:00B20DH        LINE#              173
	----------         ENDPROC-ST7        
	----------         PROC-ST7           ?PR??UART2_ITCONFIG?STM8S_UART2
	  S:000003H        SYMBOL             UART2_IT
	  S:000007H        SYMBOL             NewState
	  S:000001H        SYMBOL             uartreg
	  S:000002H        SYMBOL             itpos
	  C:00B20EH        LINE#              192
	  C:00B210H        LINE#              194
	  C:00B214H        LINE#              195
	  C:00B214H        LINE#              196
	  C:00B214H        LINE#              199
	  C:00B21EH        LINE#              202
	  C:00B242H        LINE#              204
	  C:00B246H        LINE#              205
	  C:00B246H        LINE#              207
	  C:00B24CH        LINE#              208
	  C:00B24CH        LINE#              209
	  C:00B25AH        LINE#              211
	  C:00B260H        LINE#              212
	  C:00B260H        LINE#              213
	  C:00B26EH        LINE#              215
	  C:00B274H        LINE#              216
	  C:00B274H        LINE#              217
	  C:00B282H        LINE#              220
	  C:00B282H        LINE#              221
	  C:00B290H        LINE#              225
	  C:00B290H        LINE#              227
	  C:00B296H        LINE#              228
	  C:00B296H        LINE#              229
	  C:00B2A8H        LINE#              231
	  C:00B2AEH        LINE#              232
	  C:00B2AEH        LINE#              233
	  C:00B2C0H        LINE#              235
	  C:00B2C6H        LINE#              236
	  C:00B2C6H        LINE#              237
	  C:00B2D8H        LINE#              240
	  C:00B2D8H        LINE#              241
	  C:00B2EAH        LINE#              244
	----------         ENDPROC-ST7        
	----------         PROC-ST7           ?PR??UART2_IRDACONFIG?STM8S_UART2
	  S:000001H        SYMBOL             UART2_IrDAMode
	  C:00B2EBH        LINE#              254
	  C:00B2ECH        LINE#              256
	  C:00B2ECH        LINE#              258
	  C:00B2F0H        LINE#              259
	  C:00B2F0H        LINE#              260
	  C:00B2FEH        LINE#              263
	  C:00B2FEH        LINE#              264
	  C:00B30BH        LINE#              266
	----------         ENDPROC-ST7        
	----------         PROC-ST7           ?PR??UART2_IRDACMD?STM8S_UART2
	  S:000001H        SYMBOL             NewState
	  C:00B30CH        LINE#              277
	  C:00B30DH        LINE#              281
	  C:00B30DH        LINE#              283
	  C:00B311H        LINE#              284
	  C:00B311H        LINE#              286
	  C:00B31FH        LINE#              289
	  C:00B31FH        LINE#              291
	  C:00B32CH        LINE#              293
	----------         ENDPROC-ST7        
	----------         PROC-ST7           ?PR??UART2_LINBREAKDETECTIONCONFIG?STM8S_UART2
	  S:000001H        SYMBOL             UART2_LINBreakDetectionLength
	  C:00B32DH        LINE#              303
	  C:00B32EH        LINE#              305
	  C:00B32EH        LINE#              307
	  C:00B332H        LINE#              308
	  C:00B332H        LINE#              309
	  C:00B340H        LINE#              312
	  C:00B340H        LINE#              313
	  C:00B34DH        LINE#              315
	----------         ENDPROC-ST7        
	----------         PROC-ST7           ?PR??UART2_LINCONFIG?STM8S_UART2
	  S:000001H        SYMBOL             UART2_Mode
	  S:000005H        SYMBOL             UART2_Autosync
	  S:000007H        SYMBOL             UART2_DivUp
	  C:00B34EH        LINE#              329
	  C:00B34FH        LINE#              331
	  C:00B34FH        LINE#              333
	  C:00B34FH        LINE#              335
	  C:00B34FH        LINE#              337
	  C:00B353H        LINE#              338
	  C:00B353H        LINE#              339
	  C:00B361H        LINE#              342
	  C:00B361H        LINE#              343
	  C:00B36DH        LINE#              346
	  C:00B371H        LINE#              347
	  C:00B371H        LINE#              348
	  C:00B37FH        LINE#              351
	  C:00B37FH        LINE#              352
	  C:00B38BH        LINE#              355
	  C:00B38FH        LINE#              356
	  C:00B38FH        LINE#              357
	  C:00B39DH        LINE#              360
	  C:00B39DH        LINE#              361
	  C:00B3AAH        LINE#              364
	----------         ENDPROC-ST7        
	----------         PROC-ST7           ?PR??UART2_LINCMD?STM8S_UART2
	  S:000001H        SYMBOL             NewState
	  C:00B3ABH        LINE#              376
	  C:00B3ACH        LINE#              378
	  C:00B3ACH        LINE#              380
	  C:00B3B0H        LINE#              381
	  C:00B3B0H        LINE#              383
	  C:00B3BEH        LINE#              386
	  C:00B3BEH        LINE#              388
	  C:00B3CBH        LINE#              390
	----------         ENDPROC-ST7        
	----------         PROC-ST7           ?PR??UART2_SMARTCARDCMD?STM8S_UART2
	  S:000001H        SYMBOL             NewState
	  C:00B3CCH        LINE#              400
	  C:00B3CDH        LINE#              402
	  C:00B3CDH        LINE#              404
	  C:00B3D1H        LINE#              405
	  C:00B3D1H        LINE#              407
	  C:00B3DFH        LINE#              410
	  C:00B3DFH        LINE#              412
	  C:00B3ECH        LINE#              414
	----------         ENDPROC-ST7        
	----------         PROC-ST7           ?PR??UART2_SMARTCARDNACKCMD?STM8S_UART2
	  S:000001H        SYMBOL             NewState
	  C:00B3EDH        LINE#              425
	  C:00B3EEH        LINE#              427
	  C:00B3EEH        LINE#              429
	  C:00B3F2H        LINE#              430
	  C:00B3F2H        LINE#              432
	  C:00B400H        LINE#              435
	  C:00B400H        LINE#              437
	  C:00B40DH        LINE#              439
	----------         ENDPROC-ST7        
	----------         PROC-ST7           ?PR??UART2_WAKEUPCONFIG?STM8S_UART2
	  S:000001H        SYMBOL             UART2_WakeUp
	  C:00B40EH        LINE#              448
	  C:00B40FH        LINE#              450
	  C:00B40FH        LINE#              452
	  C:00B41BH        LINE#              453
	  C:00B428H        LINE#              454
	----------         ENDPROC-ST7        
	----------         PROC-ST7           ?PR??UART2_RECEIVERWAKEUPCMD?STM8S_UART2
	  S:000001H        SYMBOL             NewState
	  C:00B429H        LINE#              466
	  C:00B42AH        LINE#              468
	  C:00B42AH        LINE#              470
	  C:00B42EH        LINE#              471
	  C:00B42EH        LINE#              473
	  C:00B43CH        LINE#              476
	  C:00B43CH        LINE#              478
	  C:00B449H        LINE#              480
	----------         ENDPROC-ST7        
	----------         PROC-ST7           ?PR??UART2_RECEIVEDATA8?STM8S_UART2
	  C:00B44AH        LINE#              491
	  C:00B44AH        LINE#              493
	  C:00B44DH        LINE#              494
	----------         ENDPROC-ST7        
	----------         PROC-ST7           ?PR??UART2_RECEIVEDATA9?STM8S_UART2
	  C:00B44EH        LINE#              504
	  C:00B44EH        LINE#              506
	  C:00B47FH        LINE#              507
	----------         ENDPROC-ST7        
	----------         PROC-ST7           ?PR??UART2_SENDDATA8?STM8S_UART2
	  S:000001H        SYMBOL             Data
	  C:00B480H        LINE#              520
	  C:00B481H        LINE#              523
	  C:00B487H        LINE#              524
	----------         ENDPROC-ST7        
	----------         PROC-ST7           ?PR??UART2_SENDDATA9?STM8S_UART2
	  S:000001H        SYMBOL             Data
	  C:00B488H        LINE#              535
	  C:00B489H        LINE#              537
	  C:00B495H        LINE#              538
	  C:00B4B4H        LINE#              539
	  C:00B4BAH        LINE#              541
	----------         ENDPROC-ST7        
	----------         PROC-ST7           ?PR??UART2_SENDBREAK?STM8S_UART2
	  C:00B4EEH        LINE#              548
	  C:00B4EEH        LINE#              550
	  C:00B4FAH        LINE#              551
	----------         ENDPROC-ST7        
	----------         PROC-ST7           ?PR??UART2_SETADDRESS?STM8S_UART2
	  S:000001H        SYMBOL             UART2_Address
	  C:00B4FBH        LINE#              560
	  C:00B4FCH        LINE#              563
	  C:00B4FCH        LINE#              566
	  C:00B508H        LINE#              568
	  C:00B515H        LINE#              569
	----------         ENDPROC-ST7        
	----------         PROC-ST7           ?PR??UART2_SETGUARDTIME?STM8S_UART2
	  S:000001H        SYMBOL             UART2_GuardTime
	  C:00B516H        LINE#              580
	  C:00B517H        LINE#              583
	  C:00B51DH        LINE#              584
	----------         ENDPROC-ST7        
	----------         PROC-ST7           ?PR??UART2_SETPRESCALER?STM8S_UART2
	  S:000001H        SYMBOL             UART2_Prescaler
	  C:00B51EH        LINE#              610
	  C:00B51FH        LINE#              613
	  C:00B525H        LINE#              614
	----------         ENDPROC-ST7        
	----------         PROC-ST7           ?PR??UART2_GETFLAGSTATUS?STM8S_UART2
	  S:000003H        SYMBOL             UART2_FLAG
	  S:000001H        SYMBOL             status
	  C:00B526H        LINE#              625
	  C:00B528H        LINE#              627
	  C:00B52DH        LINE#              630
	  C:00B52DH        LINE#              633
	  C:00B534H        LINE#              634
	  C:00B534H        LINE#              635
	  C:00B555H        LINE#              636
	  C:00B555H        LINE#              638
	  C:00B55CH        LINE#              641
	  C:00B55CH        LINE#              643
	  C:00B564H        LINE#              646
	  C:00B56BH        LINE#              647
	  C:00B56BH        LINE#              648
	  C:00B58CH        LINE#              649
	  C:00B58CH        LINE#              651
	  C:00B593H        LINE#              654
	  C:00B593H        LINE#              656
	  C:00B59AH        LINE#              659
	  C:00B5A8H        LINE#              660
	  C:00B5A8H        LINE#              661
	  C:00B5C9H        LINE#              662
	  C:00B5C9H        LINE#              664
	  C:00B5D0H        LINE#              667
	  C:00B5D0H        LINE#              669
	  C:00B5D7H        LINE#              673
	  C:00B5D7H        LINE#              674
	  C:00B5F8H        LINE#              675
	  C:00B5F8H        LINE#              677
	  C:00B5FFH        LINE#              680
	  C:00B5FFH        LINE#              682
	  C:00B604H        LINE#              687
	  C:00B608H        LINE#              688
	----------         ENDPROC-ST7        
	----------         PROC-ST7           ?PR??UART2_CLEARFLAG?STM8S_UART2
	  S:000001H        SYMBOL             UART2_FLAG
	  C:00B609H        LINE#              715
	  C:00B60AH        LINE#              717
	  C:00B60AH        LINE#              720
	  C:00B611H        LINE#              721
	  C:00B611H        LINE#              722
	  C:00B617H        LINE#              725
	  C:00B61EH        LINE#              726
	  C:00B61EH        LINE#              727
	  C:00B62CH        LINE#              730
	  C:00B633H        LINE#              731
	  C:00B633H        LINE#              732
	  C:00B641H        LINE#              736
	  C:00B641H        LINE#              737
	  C:00B64EH        LINE#              740
	----------         ENDPROC-ST7        
	----------         PROC-ST7           ?PR??UART2_GETITSTATUS?STM8S_UART2
	  S:000007H        SYMBOL             UART2_IT
	  S:000001H        SYMBOL             pendingbitstatus
	  S:000003H        SYMBOL             itpos
	  S:000004H        SYMBOL             itmask1
	  S:000005H        SYMBOL             itmask2
	  S:000006H        SYMBOL             enablestatus
	  C:00B64FH        LINE#              758
	  C:00B652H        LINE#              760
	  C:00B657H        LINE#              761
	  C:00B65BH        LINE#              762
	  C:00B65FH        LINE#              763
	  C:00B663H        LINE#              764
	  C:00B667H        LINE#              767
	  C:00B667H        LINE#              770
	  C:00B68BH        LINE#              772
	  C:00B696H        LINE#              774
	  C:00B6AAH        LINE#              779
	  C:00B6B1H        LINE#              780
	  C:00B6B1H        LINE#              782
	  C:00B6D2H        LINE#              785
	  C:00B6F7H        LINE#              786
	  C:00B6F7H        LINE#              788
	  C:00B6FEH        LINE#              791
	  C:00B6FEH        LINE#              793
	  C:00B706H        LINE#              797
	  C:00B70DH        LINE#              798
	  C:00B70DH        LINE#              800
	  C:00B72EH        LINE#              802
	  C:00B753H        LINE#              803
	  C:00B753H        LINE#              805
	  C:00B75AH        LINE#              808
	  C:00B75AH        LINE#              810
	  C:00B762H        LINE#              813
	  C:00B769H        LINE#              814
	  C:00B769H        LINE#              816
	  C:00B78AH        LINE#              818
	  C:00B7AFH        LINE#              819
	  C:00B7AFH        LINE#              821
	  C:00B7B6H        LINE#              824
	  C:00B7B6H        LINE#              826
	  C:00B7BDH        LINE#              830
	  C:00B7BDH        LINE#              832
	  C:00B7DEH        LINE#              834
	  C:00B803H        LINE#              835
	  C:00B803H        LINE#              837
	  C:00B80AH        LINE#              840
	  C:00B80AH        LINE#              842
	  C:00B80FH        LINE#              846
	  C:00B813H        LINE#              847
	----------         ENDPROC-ST7        
	----------         PROC-ST7           ?PR??UART2_CLEARITPENDINGBIT?STM8S_UART2
	  S:000001H        SYMBOL             UART2_IT
	  C:00B814H        LINE#              873
	  C:00B815H        LINE#              875
	  C:00B815H        LINE#              878
	  C:00B81CH        LINE#              879
	  C:00B81CH        LINE#              880
	  C:00B822H        LINE#              883
	  C:00B829H        LINE#              884
	  C:00B829H        LINE#              885
	  C:00B837H        LINE#              889
	  C:00B837H        LINE#              890
	  C:00B844H        LINE#              892
	----------         ENDPROC-ST7        
	----------         EndModule-ST7      
	----------         TranslatorMod-ST7  CHARTOL
	  C:008342H        PUBLIC             ?C?uchartol
	  C:00833AH        PUBLIC             ?C?chartol
	----------         PROC-ST7           
	----------         ENDPROC-ST7        
	----------         EndModule-ST7      
	----------         TranslatorMod-ST7  INTTOL
	  C:00834CH        PUBLIC             ?C?inttol
	----------         PROC-ST7           
	----------         ENDPROC-ST7        
	----------         EndModule-ST7      
	----------         TranslatorMod-ST7  ADD3232
	  C:008356H        PUBLIC             ?C?add3232
	----------         PROC-ST7           
	----------         ENDPROC-ST7        
	----------         EndModule-ST7      
	----------         TranslatorMod-ST7  AND3232
	  C:00836BH        PUBLIC             ?C?and3232
	----------         PROC-ST7           
	----------         ENDPROC-ST7        
	----------         EndModule-ST7      
	----------         TranslatorMod-ST7  DIVS1616
	  C:008381H        PUBLIC             ?C?divs1616
	----------         PROC-ST7           
	----------         ENDPROC-ST7        
	----------         EndModule-ST7      
	----------         TranslatorMod-ST7  DIVU3232
	  C:0084E6H        PUBLIC             ?C?modu3232
	  C:0084F1H        PUBLIC             _?divu3216?
	  C:0084EAH        PUBLIC             ?C?divu3232
	----------         PROC-ST7           
	----------         ENDPROC-ST7        
	----------         EndModule-ST7      
	----------         TranslatorMod-ST7  DIVUIX32
	  C:0088DCH        PUBLIC             ?C?divuix32
	----------         PROC-ST7           
	----------         ENDPROC-ST7        
	----------         EndModule-ST7      
	----------         TranslatorMod-ST7  MULUIX32
	  C:0088E2H        PUBLIC             ?C?muluix32
	----------         PROC-ST7           
	----------         ENDPROC-ST7        
	----------         EndModule-ST7      
	----------         TranslatorMod-ST7  IX32
	  C:0088E8H        PUBLIC             _?lix_entry?
	----------         PROC-ST7           
	----------         ENDPROC-ST7        
	----------         EndModule-ST7      
	----------         TranslatorMod-ST7  MULU1616
	  C:00839AH        PUBLIC             ?C?mulu1616
	----------         PROC-ST7           
	----------         ENDPROC-ST7        
	----------         EndModule-ST7      
	----------         TranslatorMod-ST7  MULU3232
	  C:0083B5H        PUBLIC             ?C?mulu3232
	----------         PROC-ST7           
	----------         ENDPROC-ST7        
	----------         EndModule-ST7      
	----------         TranslatorMod-ST7  MV4_BC2ISA
	  C:008442H        PUBLIC             ?C?mv4_bc2isa
	----------         PROC-ST7           
	----------         ENDPROC-ST7        
	----------         EndModule-ST7      
	----------         TranslatorMod-ST7  MV4_BC2SK
	  C:00845AH        PUBLIC             ?C?mv4_bc2sk
	----------         PROC-ST7           
	----------         ENDPROC-ST7        
	----------         EndModule-ST7      
	----------         TranslatorMod-ST7  MV4_ISA2BC
	  C:00846BH        PUBLIC             ?C?mv4_isa2bc
	----------         PROC-ST7           
	----------         ENDPROC-ST7        
	----------         EndModule-ST7      
	----------         TranslatorMod-ST7  MV4_PG2BC
	  C:008482H        PUBLIC             ?C?mv4_pg2bc
	----------         PROC-ST7           
	----------         ENDPROC-ST7        
	----------         EndModule-ST7      
	----------         TranslatorMod-ST7  MV4_PG2SK1
	  C:008494H        PUBLIC             ?C?mv4_pg2sk1
	----------         PROC-ST7           
	----------         ENDPROC-ST7        
	----------         EndModule-ST7      
	----------         TranslatorMod-ST7  SLL168
	  C:0088F4H        PUBLIC             ?C?sll168
	----------         PROC-ST7           
	----------         ENDPROC-ST7        
	----------         EndModule-ST7      
	----------         TranslatorMod-ST7  SLL328
	  C:008903H        PUBLIC             ?C?sll328
	----------         PROC-ST7           
	----------         ENDPROC-ST7        
	----------         EndModule-ST7      
	----------         TranslatorMod-ST7  SRA168
	  C:00891DH        PUBLIC             ?C?sra168
	----------         PROC-ST7           
	----------         ENDPROC-ST7        
	----------         EndModule-ST7      
	----------         TranslatorMod-ST7  SUB3232
	  C:00849DH        PUBLIC             ?C?sub3232
	----------         PROC-ST7           
	----------         ENDPROC-ST7        
	----------         EndModule-ST7      
	----------         TranslatorMod-ST7  SRL328
	  C:00892CH        PUBLIC             ?C?srl328
	----------         PROC-ST7           
	----------         ENDPROC-ST7        
	----------         EndModule-ST7      
	----------         TranslatorMod-ST7  SWAPSKBC
	  C:0084B4H        PUBLIC             ?C?swap_skbc
	----------         PROC-ST7           
	----------         ENDPROC-ST7        
	----------         EndModule-ST7      
	----------         TranslatorMod-ST7  REGISTERS
	  D:00002DH        PUBLIC             ?BH
	  D:00002FH        PUBLIC             ?CH
	  D:00002EH        PUBLIC             ?BL
	  D:000030H        PUBLIC             ?CL
	----------         EndModule-ST7      
	----------         TranslatorMod-ST7  STARTUP_V_Z
	  C:00B4BBH        PUBLIC             CST7_START_V_Z
	----------         PROC-ST7           
	----------         ENDPROC-ST7        
	----------         PROC-ST7           
	----------         ENDPROC-ST7        
	----------         PROC-ST7           
	----------         ENDPROC-ST7        
	----------         PROC-ST7           
	----------         ENDPROC-ST7        
	----------         EndModule-ST7      
	----------         TranslatorMod-ST7  STRCMP
	  C:0084D3H        PUBLIC             ?strcmp
	----------         PROC-ST7           
	----------         ENDPROC-ST7        
	----------         EndModule-ST7      
	----------         TranslatorMod-ST7  ?STATINIT
	  C:00B845H        PUBLIC             ?C_INITSEGSTART
	----------         PROC-ST7           
	----------         ENDPROC-ST7        
	----------         EndModule-ST7      

================================================================================
PROJECT CALL TREE FOR DEBUG\HYPERTERMINAL.AOF(HYPERTERMINAL)
--------------------------------------------------------------------------------
 *** means CALL
 ... means JMP
  KC means 'Known local stack consumption'.
  TO means 'Total stack consumption from the entry point'.
 Remarks:
     1. Values are in HEXADECIMAL format.
     2. SP can be modified by temporary 'PUSH-POP' sequences.
     3. SP is computed starting from its 'original value' for interrupt/trap..
 Displayed stack consumption may be under estimated.
 The real value depends on interrupt priorities. It can be checked
 using the dynamic analysis in the simulator environment.
--------------------------------------------------------------------------------
Initial SP: 07FF
--------------------------------------------------------------------------------
?TRAP_IRQHandler..........................................SP=07F8 KC=000 TO=0007
--------------------------------------------------------------------------------
?AWU_IRQHandler...........................................SP=07F8 KC=000 TO=0007
--------------------------------------------------------------------------------
?CLK_IRQHandler...........................................SP=07F8 KC=000 TO=0007
--------------------------------------------------------------------------------
?EXTI_PORTA_IRQHandler....................................SP=07F8 KC=000 TO=0007
--------------------------------------------------------------------------------
?EXTI_PORTB_IRQHandler....................................SP=07F8 KC=000 TO=0007
--------------------------------------------------------------------------------
?EXTI_PORTC_IRQHandler....................................SP=07F8 KC=000 TO=0007
--------------------------------------------------------------------------------
?EXTI_PORTD_IRQHandler....................................SP=07F8 KC=000 TO=0007
--------------------------------------------------------------------------------
?EXTI_PORTE_IRQHandler....................................SP=07F8 KC=000 TO=0007
--------------------------------------------------------------------------------
?SPI_IRQHandler...........................................SP=07F8 KC=000 TO=0007
--------------------------------------------------------------------------------
?TIM1_UPD_OVF_TRG_BRK_IRQHandler..........................SP=07F8 KC=000 TO=0007
--------------------------------------------------------------------------------
?TIM1_CAP_COM_IRQHandler..................................SP=07F8 KC=000 TO=0007
--------------------------------------------------------------------------------
?TIM2_UPD_OVF_BRK_IRQHandler..............................SP=07F8 KC=000 TO=0007
--------------------------------------------------------------------------------
?TIM2_CAP_COM_IRQHandler..................................SP=07F8 KC=000 TO=0007
--------------------------------------------------------------------------------
?TIM3_UPD_OVF_BRK_IRQHandler..............................SP=07F8 KC=000 TO=0007
    |***?GPIO_WriteReverse [STM8S_GPIO]...................SP=07F4 KC=004 TO=000B
--------------------------------------------------------------------------------
?TIM3_CAP_COM_IRQHandler..................................SP=07F8 KC=000 TO=0007
--------------------------------------------------------------------------------
?I2C_IRQHandler...........................................SP=07F8 KC=000 TO=0007
--------------------------------------------------------------------------------
?UART2_TX_IRQHandler......................................SP=07F8 KC=000 TO=0007
--------------------------------------------------------------------------------
?UART2_RX_IRQHandler......................................SP=07F8 KC=000 TO=0007
--------------------------------------------------------------------------------
?ADC1_IRQHandler..........................................SP=07F8 KC=000 TO=0007
--------------------------------------------------------------------------------
?TIM4_UPD_OVF_IRQHandler..................................SP=07F8 KC=000 TO=0007
--------------------------------------------------------------------------------
?EEPROM_EEC_IRQHandler....................................SP=07F8 KC=000 TO=0007
================================================================================

MAX STACK LEVEL : 2
-------------------


----------------------
SUGGESTED OPTIMIZATION
----------------------
Warning: 199 (C7H) data bytes in the range [00H-FFH] are available for storage.
         Consider using some of these for 'page0' variables in your source files.


LINK/LOCATE RUN COMPLETE,  NO ERROR FOUND.